04c0006f 00 00000000 80000000 8000004c // j pc + 0x4c
f1402573 10 00000000 8000004c 80000050 // csrr a0, mhartid
00051063 00 00000000 80000050 80000054 // bnez a0, pc + 0
00000297 05 80000054 80000054 80000058 // auipc t0, 0x0
01028293 05 80000064 80000058 8000005c // addi t0, t0, 16
30529073 00 00000000 8000005c 80000060 // csrw mtvec, t0
18005073 00 00000000 80000060 80000064 // csrwi satp, 0
00000297 05 80000064 80000064 80000068 // auipc t0, 0x0
02028293 05 80000084 80000068 8000006c // addi t0, t0, 32
30529073 00 00000000 8000006c 80000070 // csrw mtvec, t0
800002b7 05 80000000 80000070 80000074 // lui t0, 0x80000
fff28293 05 7fffffff 80000074 80000078 // addi t0, t0, -1
3b029073 00 00000000 80000078 8000007c // csrw pmpaddr0, t0
01f00293 05 0000001f 8000007c 80000080 // li t0, 31
3a029073 00 00000000 80000080 80000084 // csrw pmpcfg0, t0
00000297 05 80000084 80000084 80000088 // auipc t0, 0x0
01828293 05 8000009c 80000088 8000008c // addi t0, t0, 24
30529073 00 00000000 8000008c 80000090 // csrw mtvec, t0
30205073 00 00000000 80000090 80000094 // csrwi medeleg, 0
30305073 00 00000000 80000094 80000098 // csrwi mideleg, 0
30405073 00 00000000 80000098 8000009c // csrwi mie, 0
00000193 03 00000000 8000009c 800000a0 // li gp, 0
00000297 05 800000a0 800000a0 800000a4 // auipc t0, 0x0
f6428293 05 80000004 800000a4 800000a8 // addi t0, t0, -156
30529073 00 00000000 800000a8 800000ac // csrw mtvec, t0
00100513 10 00000001 800000ac 800000b0 // li a0, 1
01f51513 10 80000000 800000b0 800000b4 // slli a0, a0, 31
00054c63 00 00000000 800000b4 800000cc // bltz a0, pc + 24
80000297 05 000000cc 800000cc 800000d0 // auipc t0, 0x80000
f3428293 05 00000000 800000d0 800000d4 // addi t0, t0, -204
00028a63 00 00000000 800000d4 800000e8 // beqz t0, pc + 20
30005073 00 00000000 800000e8 800000ec // csrwi mstatus, 0
00000297 05 800000ec 800000ec 800000f0 // auipc t0, 0x0
01428293 05 80000100 800000f0 800000f4 // addi t0, t0, 20
34129073 00 00000000 800000f4 800000f8 // csrw mepc, t0
f1402573 10 00000000 800000f8 800000fc // csrr a0, mhartid
30200073 00 00000000 800000fc 0000000080000100 // mret
00000093 01 00000000 0000000080000100 80000104 // li ra, 0
00000113 02 00000000 80000104 80000108 // li sp, 0
00208733 14 00000000 80000108 8000010c // add a4, ra, sp
00000e93 29 00000000 8000010c 80000110 // li t4, 0
00200193 03 00000002 80000110 80000114 // li gp, 2
4dd71663 00 00000000 80000114 80000118 // bne a4, t4, pc + 1228
00100093 01 00000001 80000118 8000011c // li ra, 1
00100113 02 00000001 8000011c 80000120 // li sp, 1
00208733 14 00000002 80000120 80000124 // add a4, ra, sp
00200e93 29 00000002 80000124 80000128 // li t4, 2
00300193 03 00000003 80000128 8000012c // li gp, 3
4bd71a63 00 00000000 8000012c 80000130 // bne a4, t4, pc + 1204
00300093 01 00000003 80000130 80000134 // li ra, 3
00700113 02 00000007 80000134 80000138 // li sp, 7
00208733 14 0000000a 80000138 8000013c // add a4, ra, sp
00a00e93 29 0000000a 8000013c 80000140 // li t4, 10
00400193 03 00000004 80000140 80000144 // li gp, 4
49d71e63 00 00000000 80000144 80000148 // bne a4, t4, pc + 1180
00000093 01 00000000 80000148 8000014c // li ra, 0
ffff8137 02 ffff8000 8000014c 80000150 // lui sp, 0xffff8
00208733 14 ffff8000 80000150 80000154 // add a4, ra, sp
ffff8eb7 29 ffff8000 80000154 80000158 // lui t4, 0xffff8
00500193 03 00000005 80000158 8000015c // li gp, 5
49d71263 00 00000000 8000015c 80000160 // bne a4, t4, pc + 1156
800000b7 01 80000000 80000160 80000164 // lui ra, 0x80000
00000113 02 00000000 80000164 80000168 // li sp, 0
00208733 14 80000000 80000168 8000016c // add a4, ra, sp
80000eb7 29 80000000 8000016c 80000170 // lui t4, 0x80000
00600193 03 00000006 80000170 80000174 // li gp, 6
47d71663 00 00000000 80000174 80000178 // bne a4, t4, pc + 1132
800000b7 01 80000000 80000178 8000017c // lui ra, 0x80000
ffff8137 02 ffff8000 8000017c 80000180 // lui sp, 0xffff8
00208733 14 7fff8000 80000180 80000184 // add a4, ra, sp
7fff8eb7 29 7fff8000 80000184 80000188 // lui t4, 0x7fff8
00700193 03 00000007 80000188 8000018c // li gp, 7
45d71a63 00 00000000 8000018c 80000190 // bne a4, t4, pc + 1108
00000093 01 00000000 80000190 80000194 // li ra, 0
00008137 02 00008000 80000194 80000198 // lui sp, 0x8
fff10113 02 00007fff 80000198 8000019c // addi sp, sp, -1
00208733 14 00007fff 8000019c 800001a0 // add a4, ra, sp
00008eb7 29 00008000 800001a0 800001a4 // lui t4, 0x8
fffe8e93 29 00007fff 800001a4 800001a8 // addi t4, t4, -1
00800193 03 00000008 800001a8 800001ac // li gp, 8
43d71a63 00 00000000 800001ac 800001b0 // bne a4, t4, pc + 1076
800000b7 01 80000000 800001b0 800001b4 // lui ra, 0x80000
fff08093 01 7fffffff 800001b4 800001b8 // addi ra, ra, -1
00000113 02 00000000 800001b8 800001bc // li sp, 0
00208733 14 7fffffff 800001bc 800001c0 // add a4, ra, sp
80000eb7 29 80000000 800001c0 800001c4 // lui t4, 0x80000
fffe8e93 29 7fffffff 800001c4 800001c8 // addi t4, t4, -1
00900193 03 00000009 800001c8 800001cc // li gp, 9
41d71a63 00 00000000 800001cc 800001d0 // bne a4, t4, pc + 1044
800000b7 01 80000000 800001d0 800001d4 // lui ra, 0x80000
fff08093 01 7fffffff 800001d4 800001d8 // addi ra, ra, -1
00008137 02 00008000 800001d8 800001dc // lui sp, 0x8
fff10113 02 00007fff 800001dc 800001e0 // addi sp, sp, -1
00208733 14 80007ffe 800001e0 800001e4 // add a4, ra, sp
80008eb7 29 80008000 800001e4 800001e8 // lui t4, 0x80008
ffee8e93 29 80007ffe 800001e8 800001ec // addi t4, t4, -2
00a00193 03 0000000a 800001ec 800001f0 // li gp, 10
3fd71863 00 00000000 800001f0 800001f4 // bne a4, t4, pc + 1008
800000b7 01 80000000 800001f4 800001f8 // lui ra, 0x80000
00008137 02 00008000 800001f8 800001fc // lui sp, 0x8
fff10113 02 00007fff 800001fc 80000200 // addi sp, sp, -1
00208733 14 80007fff 80000200 80000204 // add a4, ra, sp
80008eb7 29 80008000 80000204 80000208 // lui t4, 0x80008
fffe8e93 29 80007fff 80000208 8000020c // addi t4, t4, -1
00b00193 03 0000000b 8000020c 80000210 // li gp, 11
3dd71863 00 00000000 80000210 80000214 // bne a4, t4, pc + 976
800000b7 01 80000000 80000214 80000218 // lui ra, 0x80000
fff08093 01 7fffffff 80000218 8000021c // addi ra, ra, -1
ffff8137 02 ffff8000 8000021c 80000220 // lui sp, 0xffff8
00208733 14 7fff7fff 80000220 80000224 // add a4, ra, sp
7fff8eb7 29 7fff8000 80000224 80000228 // lui t4, 0x7fff8
fffe8e93 29 7fff7fff 80000228 8000022c // addi t4, t4, -1
00c00193 03 0000000c 8000022c 80000230 // li gp, 12
3bd71863 00 00000000 80000230 80000234 // bne a4, t4, pc + 944
00000093 01 00000000 80000234 80000238 // li ra, 0
fff00113 02 ffffffff 80000238 8000023c // li sp, -1
00208733 14 ffffffff 8000023c 80000240 // add a4, ra, sp
fff00e93 29 ffffffff 80000240 80000244 // li t4, -1
00d00193 03 0000000d 80000244 80000248 // li gp, 13
39d71c63 00 00000000 80000248 8000024c // bne a4, t4, pc + 920
fff00093 01 ffffffff 8000024c 80000250 // li ra, -1
00100113 02 00000001 80000250 80000254 // li sp, 1
00208733 14 00000000 80000254 80000258 // add a4, ra, sp
00000e93 29 00000000 80000258 8000025c // li t4, 0
00e00193 03 0000000e 8000025c 80000260 // li gp, 14
39d71063 00 00000000 80000260 80000264 // bne a4, t4, pc + 896
fff00093 01 ffffffff 80000264 80000268 // li ra, -1
fff00113 02 ffffffff 80000268 8000026c // li sp, -1
00208733 14 fffffffe 8000026c 80000270 // add a4, ra, sp
ffe00e93 29 fffffffe 80000270 80000274 // li t4, -2
00f00193 03 0000000f 80000274 80000278 // li gp, 15
37d71463 00 00000000 80000278 8000027c // bne a4, t4, pc + 872
00100093 01 00000001 8000027c 80000280 // li ra, 1
80000137 02 80000000 80000280 80000284 // lui sp, 0x80000
fff10113 02 7fffffff 80000284 80000288 // addi sp, sp, -1
00208733 14 80000000 80000288 8000028c // add a4, ra, sp
80000eb7 29 80000000 8000028c 80000290 // lui t4, 0x80000
01000193 03 00000010 80000290 80000294 // li gp, 16
35d71663 00 00000000 80000294 80000298 // bne a4, t4, pc + 844
00d00093 01 0000000d 80000298 8000029c // li ra, 13
00b00113 02 0000000b 8000029c 800002a0 // li sp, 11
002080b3 01 00000018 800002a0 800002a4 // add ra, ra, sp
01800e93 29 00000018 800002a4 800002a8 // li t4, 24
01100193 03 00000011 800002a8 800002ac // li gp, 17
33d09a63 00 00000000 800002ac 800002b0 // bne ra, t4, pc + 820
00e00093 01 0000000e 800002b0 800002b4 // li ra, 14
00b00113 02 0000000b 800002b4 800002b8 // li sp, 11
00208133 02 00000019 800002b8 800002bc // add sp, ra, sp
01900e93 29 00000019 800002bc 800002c0 // li t4, 25
01200193 03 00000012 800002c0 800002c4 // li gp, 18
31d11e63 00 00000000 800002c4 800002c8 // bne sp, t4, pc + 796
00d00093 01 0000000d 800002c8 800002cc // li ra, 13
001080b3 01 0000001a 800002cc 800002d0 // add ra, ra, ra
01a00e93 29 0000001a 800002d0 800002d4 // li t4, 26
01300193 03 00000013 800002d4 800002d8 // li gp, 19
31d09463 00 00000000 800002d8 800002dc // bne ra, t4, pc + 776
00000213 04 00000000 800002dc 800002e0 // li tp, 0
00d00093 01 0000000d 800002e0 800002e4 // li ra, 13
00b00113 02 0000000b 800002e4 800002e8 // li sp, 11
00208733 14 00000018 800002e8 800002ec // add a4, ra, sp
00070313 06 00000018 800002ec 800002f0 // mv t1, a4
00120213 04 00000001 800002f0 800002f4 // addi tp, tp, 1
00200293 05 00000002 800002f4 800002f8 // li t0, 2
fe5214e3 00 00000000 800002f8 800002e0 // bne tp, t0, pc - 24
00d00093 01 0000000d 800002e0 800002e4 // li ra, 13
00b00113 02 0000000b 800002e4 800002e8 // li sp, 11
00208733 14 00000018 800002e8 800002ec // add a4, ra, sp
00070313 06 00000018 800002ec 800002f0 // mv t1, a4
00120213 04 00000002 800002f0 800002f4 // addi tp, tp, 1
00200293 05 00000002 800002f4 800002f8 // li t0, 2
fe5214e3 00 00000000 800002f8 800002fc // bne tp, t0, pc - 24
01800e93 29 00000018 800002fc 80000300 // li t4, 24
01400193 03 00000014 80000300 80000304 // li gp, 20
2dd31e63 00 00000000 80000304 80000308 // bne t1, t4, pc + 732
00000213 04 00000000 80000308 8000030c // li tp, 0
00e00093 01 0000000e 8000030c 80000310 // li ra, 14
00b00113 02 0000000b 80000310 80000314 // li sp, 11
00208733 14 00000019 80000314 80000318 // add a4, ra, sp
00000013 00 00000000 80000318 8000031c // nop
00070313 06 00000019 8000031c 80000320 // mv t1, a4
00120213 04 00000001 80000320 80000324 // addi tp, tp, 1
00200293 05 00000002 80000324 80000328 // li t0, 2
fe5212e3 00 00000000 80000328 8000030c // bne tp, t0, pc - 28
00e00093 01 0000000e 8000030c 80000310 // li ra, 14
00b00113 02 0000000b 80000310 80000314 // li sp, 11
00208733 14 00000019 80000314 80000318 // add a4, ra, sp
00000013 00 00000000 80000318 8000031c // nop
00070313 06 00000019 8000031c 80000320 // mv t1, a4
00120213 04 00000002 80000320 80000324 // addi tp, tp, 1
00200293 05 00000002 80000324 80000328 // li t0, 2
fe5212e3 00 00000000 80000328 8000032c // bne tp, t0, pc - 28
01900e93 29 00000019 8000032c 80000330 // li t4, 25
01500193 03 00000015 80000330 80000334 // li gp, 21
2bd31663 00 00000000 80000334 80000338 // bne t1, t4, pc + 684
00000213 04 00000000 80000338 8000033c // li tp, 0
00f00093 01 0000000f 8000033c 80000340 // li ra, 15
00b00113 02 0000000b 80000340 80000344 // li sp, 11
00208733 14 0000001a 80000344 80000348 // add a4, ra, sp
00000013 00 00000000 80000348 8000034c // nop
00000013 00 00000000 8000034c 80000350 // nop
00070313 06 0000001a 80000350 80000354 // mv t1, a4
00120213 04 00000001 80000354 80000358 // addi tp, tp, 1
00200293 05 00000002 80000358 8000035c // li t0, 2
fe5210e3 00 00000000 8000035c 8000033c // bne tp, t0, pc - 32
00f00093 01 0000000f 8000033c 80000340 // li ra, 15
00b00113 02 0000000b 80000340 80000344 // li sp, 11
00208733 14 0000001a 80000344 80000348 // add a4, ra, sp
00000013 00 00000000 80000348 8000034c // nop
00000013 00 00000000 8000034c 80000350 // nop
00070313 06 0000001a 80000350 80000354 // mv t1, a4
00120213 04 00000002 80000354 80000358 // addi tp, tp, 1
00200293 05 00000002 80000358 8000035c // li t0, 2
fe5210e3 00 00000000 8000035c 80000360 // bne tp, t0, pc - 32
01a00e93 29 0000001a 80000360 80000364 // li t4, 26
01600193 03 00000016 80000364 80000368 // li gp, 22
27d31c63 00 00000000 80000368 8000036c // bne t1, t4, pc + 632
00000213 04 00000000 8000036c 80000370 // li tp, 0
00d00093 01 0000000d 80000370 80000374 // li ra, 13
00b00113 02 0000000b 80000374 80000378 // li sp, 11
00208733 14 00000018 80000378 8000037c // add a4, ra, sp
00120213 04 00000001 8000037c 80000380 // addi tp, tp, 1
00200293 05 00000002 80000380 80000384 // li t0, 2
fe5216e3 00 00000000 80000384 80000370 // bne tp, t0, pc - 20
00d00093 01 0000000d 80000370 80000374 // li ra, 13
00b00113 02 0000000b 80000374 80000378 // li sp, 11
00208733 14 00000018 80000378 8000037c // add a4, ra, sp
00120213 04 00000002 8000037c 80000380 // addi tp, tp, 1
00200293 05 00000002 80000380 80000384 // li t0, 2
fe5216e3 00 00000000 80000384 80000388 // bne tp, t0, pc - 20
01800e93 29 00000018 80000388 8000038c // li t4, 24
01700193 03 00000017 8000038c 80000390 // li gp, 23
25d71863 00 00000000 80000390 80000394 // bne a4, t4, pc + 592
00000213 04 00000000 80000394 80000398 // li tp, 0
00e00093 01 0000000e 80000398 8000039c // li ra, 14
00b00113 02 0000000b 8000039c 800003a0 // li sp, 11
00000013 00 00000000 800003a0 800003a4 // nop
00208733 14 00000019 800003a4 800003a8 // add a4, ra, sp
00120213 04 00000001 800003a8 800003ac // addi tp, tp, 1
00200293 05 00000002 800003ac 800003b0 // li t0, 2
fe5214e3 00 00000000 800003b0 80000398 // bne tp, t0, pc - 24
00e00093 01 0000000e 80000398 8000039c // li ra, 14
00b00113 02 0000000b 8000039c 800003a0 // li sp, 11
00000013 00 00000000 800003a0 800003a4 // nop
00208733 14 00000019 800003a4 800003a8 // add a4, ra, sp
00120213 04 00000002 800003a8 800003ac // addi tp, tp, 1
00200293 05 00000002 800003ac 800003b0 // li t0, 2
fe5214e3 00 00000000 800003b0 800003b4 // bne tp, t0, pc - 24
01900e93 29 00000019 800003b4 800003b8 // li t4, 25
01800193 03 00000018 800003b8 800003bc // li gp, 24
23d71263 00 00000000 800003bc 800003c0 // bne a4, t4, pc + 548
00000213 04 00000000 800003c0 800003c4 // li tp, 0
00f00093 01 0000000f 800003c4 800003c8 // li ra, 15
00b00113 02 0000000b 800003c8 800003cc // li sp, 11
00000013 00 00000000 800003cc 800003d0 // nop
00000013 00 00000000 800003d0 800003d4 // nop
00208733 14 0000001a 800003d4 800003d8 // add a4, ra, sp
00120213 04 00000001 800003d8 800003dc // addi tp, tp, 1
00200293 05 00000002 800003dc 800003e0 // li t0, 2
fe5212e3 00 00000000 800003e0 800003c4 // bne tp, t0, pc - 28
00f00093 01 0000000f 800003c4 800003c8 // li ra, 15
00b00113 02 0000000b 800003c8 800003cc // li sp, 11
00000013 00 00000000 800003cc 800003d0 // nop
00000013 00 00000000 800003d0 800003d4 // nop
00208733 14 0000001a 800003d4 800003d8 // add a4, ra, sp
00120213 04 00000002 800003d8 800003dc // addi tp, tp, 1
00200293 05 00000002 800003dc 800003e0 // li t0, 2
fe5212e3 00 00000000 800003e0 800003e4 // bne tp, t0, pc - 28
01a00e93 29 0000001a 800003e4 800003e8 // li t4, 26
01900193 03 00000019 800003e8 800003ec // li gp, 25
1fd71a63 00 00000000 800003ec 800003f0 // bne a4, t4, pc + 500
00000213 04 00000000 800003f0 800003f4 // li tp, 0
00d00093 01 0000000d 800003f4 800003f8 // li ra, 13
00000013 00 00000000 800003f8 800003fc // nop
00b00113 02 0000000b 800003fc 80000400 // li sp, 11
00208733 14 00000018 80000400 80000404 // add a4, ra, sp
00120213 04 00000001 80000404 80000408 // addi tp, tp, 1
00200293 05 00000002 80000408 8000040c // li t0, 2
fe5214e3 00 00000000 8000040c 800003f4 // bne tp, t0, pc - 24
00d00093 01 0000000d 800003f4 800003f8 // li ra, 13
00000013 00 00000000 800003f8 800003fc // nop
00b00113 02 0000000b 800003fc 80000400 // li sp, 11
00208733 14 00000018 80000400 80000404 // add a4, ra, sp
00120213 04 00000002 80000404 80000408 // addi tp, tp, 1
00200293 05 00000002 80000408 8000040c // li t0, 2
fe5214e3 00 00000000 8000040c 80000410 // bne tp, t0, pc - 24
01800e93 29 00000018 80000410 80000414 // li t4, 24
01a00193 03 0000001a 80000414 80000418 // li gp, 26
1dd71463 00 00000000 80000418 8000041c // bne a4, t4, pc + 456
00000213 04 00000000 8000041c 80000420 // li tp, 0
00e00093 01 0000000e 80000420 80000424 // li ra, 14
00000013 00 00000000 80000424 80000428 // nop
00b00113 02 0000000b 80000428 8000042c // li sp, 11
00000013 00 00000000 8000042c 80000430 // nop
00208733 14 00000019 80000430 80000434 // add a4, ra, sp
00120213 04 00000001 80000434 80000438 // addi tp, tp, 1
00200293 05 00000002 80000438 8000043c // li t0, 2
fe5212e3 00 00000000 8000043c 80000420 // bne tp, t0, pc - 28
00e00093 01 0000000e 80000420 80000424 // li ra, 14
00000013 00 00000000 80000424 80000428 // nop
00b00113 02 0000000b 80000428 8000042c // li sp, 11
00000013 00 00000000 8000042c 80000430 // nop
00208733 14 00000019 80000430 80000434 // add a4, ra, sp
00120213 04 00000002 80000434 80000438 // addi tp, tp, 1
00200293 05 00000002 80000438 8000043c // li t0, 2
fe5212e3 00 00000000 8000043c 80000440 // bne tp, t0, pc - 28
01900e93 29 00000019 80000440 80000444 // li t4, 25
01b00193 03 0000001b 80000444 80000448 // li gp, 27
19d71c63 00 00000000 80000448 8000044c // bne a4, t4, pc + 408
00000213 04 00000000 8000044c 80000450 // li tp, 0
00f00093 01 0000000f 80000450 80000454 // li ra, 15
00000013 00 00000000 80000454 80000458 // nop
00000013 00 00000000 80000458 8000045c // nop
00b00113 02 0000000b 8000045c 80000460 // li sp, 11
00208733 14 0000001a 80000460 80000464 // add a4, ra, sp
00120213 04 00000001 80000464 80000468 // addi tp, tp, 1
00200293 05 00000002 80000468 8000046c // li t0, 2
fe5212e3 00 00000000 8000046c 80000450 // bne tp, t0, pc - 28
00f00093 01 0000000f 80000450 80000454 // li ra, 15
00000013 00 00000000 80000454 80000458 // nop
00000013 00 00000000 80000458 8000045c // nop
00b00113 02 0000000b 8000045c 80000460 // li sp, 11
00208733 14 0000001a 80000460 80000464 // add a4, ra, sp
00120213 04 00000002 80000464 80000468 // addi tp, tp, 1
00200293 05 00000002 80000468 8000046c // li t0, 2
fe5212e3 00 00000000 8000046c 80000470 // bne tp, t0, pc - 28
01a00e93 29 0000001a 80000470 80000474 // li t4, 26
01c00193 03 0000001c 80000474 80000478 // li gp, 28
17d71463 00 00000000 80000478 8000047c // bne a4, t4, pc + 360
00000213 04 00000000 8000047c 80000480 // li tp, 0
00b00113 02 0000000b 80000480 80000484 // li sp, 11
00d00093 01 0000000d 80000484 80000488 // li ra, 13
00208733 14 00000018 80000488 8000048c // add a4, ra, sp
00120213 04 00000001 8000048c 80000490 // addi tp, tp, 1
00200293 05 00000002 80000490 80000494 // li t0, 2
fe5216e3 00 00000000 80000494 80000480 // bne tp, t0, pc - 20
00b00113 02 0000000b 80000480 80000484 // li sp, 11
00d00093 01 0000000d 80000484 80000488 // li ra, 13
00208733 14 00000018 80000488 8000048c // add a4, ra, sp
00120213 04 00000002 8000048c 80000490 // addi tp, tp, 1
00200293 05 00000002 80000490 80000494 // li t0, 2
fe5216e3 00 00000000 80000494 80000498 // bne tp, t0, pc - 20
01800e93 29 00000018 80000498 8000049c // li t4, 24
01d00193 03 0000001d 8000049c 800004a0 // li gp, 29
15d71063 00 00000000 800004a0 800004a4 // bne a4, t4, pc + 320
00000213 04 00000000 800004a4 800004a8 // li tp, 0
00b00113 02 0000000b 800004a8 800004ac // li sp, 11
00e00093 01 0000000e 800004ac 800004b0 // li ra, 14
00000013 00 00000000 800004b0 800004b4 // nop
00208733 14 00000019 800004b4 800004b8 // add a4, ra, sp
00120213 04 00000001 800004b8 800004bc // addi tp, tp, 1
00200293 05 00000002 800004bc 800004c0 // li t0, 2
fe5214e3 00 00000000 800004c0 800004a8 // bne tp, t0, pc - 24
00b00113 02 0000000b 800004a8 800004ac // li sp, 11
00e00093 01 0000000e 800004ac 800004b0 // li ra, 14
00000013 00 00000000 800004b0 800004b4 // nop
00208733 14 00000019 800004b4 800004b8 // add a4, ra, sp
00120213 04 00000002 800004b8 800004bc // addi tp, tp, 1
00200293 05 00000002 800004bc 800004c0 // li t0, 2
fe5214e3 00 00000000 800004c0 800004c4 // bne tp, t0, pc - 24
01900e93 29 00000019 800004c4 800004c8 // li t4, 25
01e00193 03 0000001e 800004c8 800004cc // li gp, 30
11d71a63 00 00000000 800004cc 800004d0 // bne a4, t4, pc + 276
00000213 04 00000000 800004d0 800004d4 // li tp, 0
00b00113 02 0000000b 800004d4 800004d8 // li sp, 11
00f00093 01 0000000f 800004d8 800004dc // li ra, 15
00000013 00 00000000 800004dc 800004e0 // nop
00000013 00 00000000 800004e0 800004e4 // nop
00208733 14 0000001a 800004e4 800004e8 // add a4, ra, sp
00120213 04 00000001 800004e8 800004ec // addi tp, tp, 1
00200293 05 00000002 800004ec 800004f0 // li t0, 2
fe5212e3 00 00000000 800004f0 800004d4 // bne tp, t0, pc - 28
00b00113 02 0000000b 800004d4 800004d8 // li sp, 11
00f00093 01 0000000f 800004d8 800004dc // li ra, 15
00000013 00 00000000 800004dc 800004e0 // nop
00000013 00 00000000 800004e0 800004e4 // nop
00208733 14 0000001a 800004e4 800004e8 // add a4, ra, sp
00120213 04 00000002 800004e8 800004ec // addi tp, tp, 1
00200293 05 00000002 800004ec 800004f0 // li t0, 2
fe5212e3 00 00000000 800004f0 800004f4 // bne tp, t0, pc - 28
01a00e93 29 0000001a 800004f4 800004f8 // li t4, 26
01f00193 03 0000001f 800004f8 800004fc // li gp, 31
0fd71263 00 00000000 800004fc 80000500 // bne a4, t4, pc + 228
00000213 04 00000000 80000500 80000504 // li tp, 0
00b00113 02 0000000b 80000504 80000508 // li sp, 11
00000013 00 00000000 80000508 8000050c // nop
00d00093 01 0000000d 8000050c 80000510 // li ra, 13
00208733 14 00000018 80000510 80000514 // add a4, ra, sp
00120213 04 00000001 80000514 80000518 // addi tp, tp, 1
00200293 05 00000002 80000518 8000051c // li t0, 2
fe5214e3 00 00000000 8000051c 80000504 // bne tp, t0, pc - 24
00b00113 02 0000000b 80000504 80000508 // li sp, 11
00000013 00 00000000 80000508 8000050c // nop
00d00093 01 0000000d 8000050c 80000510 // li ra, 13
00208733 14 00000018 80000510 80000514 // add a4, ra, sp
00120213 04 00000002 80000514 80000518 // addi tp, tp, 1
00200293 05 00000002 80000518 8000051c // li t0, 2
fe5214e3 00 00000000 8000051c 80000520 // bne tp, t0, pc - 24
01800e93 29 00000018 80000520 80000524 // li t4, 24
02000193 03 00000020 80000524 80000528 // li gp, 32
0bd71c63 00 00000000 80000528 8000052c // bne a4, t4, pc + 184
00000213 04 00000000 8000052c 80000530 // li tp, 0
00b00113 02 0000000b 80000530 80000534 // li sp, 11
00000013 00 00000000 80000534 80000538 // nop
00e00093 01 0000000e 80000538 8000053c // li ra, 14
00000013 00 00000000 8000053c 80000540 // nop
00208733 14 00000019 80000540 80000544 // add a4, ra, sp
00120213 04 00000001 80000544 80000548 // addi tp, tp, 1
00200293 05 00000002 80000548 8000054c // li t0, 2
fe5212e3 00 00000000 8000054c 80000530 // bne tp, t0, pc - 28
00b00113 02 0000000b 80000530 80000534 // li sp, 11
00000013 00 00000000 80000534 80000538 // nop
00e00093 01 0000000e 80000538 8000053c // li ra, 14
00000013 00 00000000 8000053c 80000540 // nop
00208733 14 00000019 80000540 80000544 // add a4, ra, sp
00120213 04 00000002 80000544 80000548 // addi tp, tp, 1
00200293 05 00000002 80000548 8000054c // li t0, 2
fe5212e3 00 00000000 8000054c 80000550 // bne tp, t0, pc - 28
01900e93 29 00000019 80000550 80000554 // li t4, 25
02100193 03 00000021 80000554 80000558 // li gp, 33
09d71463 00 00000000 80000558 8000055c // bne a4, t4, pc + 136
00000213 04 00000000 8000055c 80000560 // li tp, 0
00b00113 02 0000000b 80000560 80000564 // li sp, 11
00000013 00 00000000 80000564 80000568 // nop
00000013 00 00000000 80000568 8000056c // nop
00f00093 01 0000000f 8000056c 80000570 // li ra, 15
00208733 14 0000001a 80000570 80000574 // add a4, ra, sp
00120213 04 00000001 80000574 80000578 // addi tp, tp, 1
00200293 05 00000002 80000578 8000057c // li t0, 2
fe5212e3 00 00000000 8000057c 80000560 // bne tp, t0, pc - 28
00b00113 02 0000000b 80000560 80000564 // li sp, 11
00000013 00 00000000 80000564 80000568 // nop
00000013 00 00000000 80000568 8000056c // nop
00f00093 01 0000000f 8000056c 80000570 // li ra, 15
00208733 14 0000001a 80000570 80000574 // add a4, ra, sp
00120213 04 00000002 80000574 80000578 // addi tp, tp, 1
00200293 05 00000002 80000578 8000057c // li t0, 2
fe5212e3 00 00000000 8000057c 80000580 // bne tp, t0, pc - 28
01a00e93 29 0000001a 80000580 80000584 // li t4, 26
02200193 03 00000022 80000584 80000588 // li gp, 34
05d71c63 00 00000000 80000588 8000058c // bne a4, t4, pc + 88
00f00093 01 0000000f 8000058c 80000590 // li ra, 15
00100133 02 0000000f 80000590 80000594 // add sp, zero, ra
00f00e93 29 0000000f 80000594 80000598 // li t4, 15
02300193 03 00000023 80000598 8000059c // li gp, 35
05d11263 00 00000000 8000059c 800005a0 // bne sp, t4, pc + 68
02000093 01 00000020 800005a0 800005a4 // li ra, 32
00008133 02 00000020 800005a4 800005a8 // add sp, ra, zero
02000e93 29 00000020 800005a8 800005ac // li t4, 32
02400193 03 00000024 800005ac 800005b0 // li gp, 36
03d11863 00 00000000 800005b0 800005b4 // bne sp, t4, pc + 48
000000b3 01 00000000 800005b4 800005b8 // add ra, zero, zero
00000e93 29 00000000 800005b8 800005bc // li t4, 0
02500193 03 00000025 800005bc 800005c0 // li gp, 37
03d09063 00 00000000 800005c0 800005c4 // bne ra, t4, pc + 32
01000093 01 00000010 800005c4 800005c8 // li ra, 16
01e00113 02 0000001e 800005c8 800005cc // li sp, 30
00208033 00 00000000 800005cc 800005d0 // add zero, ra, sp
00000e93 29 00000000 800005d0 800005d4 // li t4, 0
02600193 03 00000026 800005d4 800005d8 // li gp, 38
01d01463 00 00000000 800005d8 800005dc // bne zero, t4, pc + 8
02301063 00 00000000 800005dc 800005fc // bne zero, gp, pc + 32
0ff0000f 00 00000000 800005fc 80000600 // fence
00100193 03 00000001 80000600 80000604 // li gp, 1
05d00893 17 0000005d 80000604 80000608 // li a7, 93
00000513 10 00000000 80000608 8000060c // li a0, 0
00000073 00 00000000 8000060c 0000000080000004 // ecall
34202f73 30 00000008 0000000080000004 80000008 // csrr t5, mcause
00800f93 31 00000008 80000008 8000000c // li t6, 8
03ff0a63 00 00000000 8000000c 80000040 // beq t5, t6, pc + 52
00001f17 30 80001040 80000040 80000044 // auipc t5, 0x1
fc3f2023 00 00000000 80000044 80000048 // sw gp, -64(t5)
ff9ff06f 00 00000000 80000048 80000040 // j pc - 0x8
00001f17 30 80001040 80000040 80000044 // auipc t5, 0x1
fc3f2023 00 00000000 80000044 80000048 // sw gp, -64(t5)
ff9ff06f 00 00000000 80000048 80000040 // j pc - 0x8
00001f17 30 80001040 80000040 80000044 // auipc t5, 0x1
fc3f2023 00 00000000 80000044 80000048 // sw gp, -64(t5)
ff9ff06f 00 00000000 80000048 80000040 // j pc - 0x8
00001f17 30 80001040 80000040 80000044 // auipc t5, 0x1
fc3f2023 00 00000000 80000044 80000048 // sw gp, -64(t5)
ff9ff06f 00 00000000 80000048 80000040 // j pc - 0x8
00001f17 30 80001040 80000040 80000044 // auipc t5, 0x1
fc3f2023 00 00000000 80000044 80000048 // sw gp, -64(t5)
ff9ff06f 00 00000000 80000048 80000040 // j pc - 0x8
00001f17 30 80001040 80000040 80000044 // auipc t5, 0x1
fc3f2023 00 00000000 80000044 80000048 // sw gp, -64(t5)
ff9ff06f 00 00000000 80000048 80000040 // j pc - 0x8
00001f17 30 80001040 80000040 80000044 // auipc t5, 0x1
fc3f2023 00 00000000 80000044 80000048 // sw gp, -64(t5)
ff9ff06f 00 00000000 80000048 80000040 // j pc - 0x8
00001f17 30 80001040 80000040 80000044 // auipc t5, 0x1
fc3f2023 00 00000000 80000044 80000048 // sw gp, -64(t5)
ff9ff06f 00 00000000 80000048 80000040 // j pc - 0x8
00001f17 30 80001040 80000040 80000044 // auipc t5, 0x1
fc3f2023 00 00000000 80000044 80000048 // sw gp, -64(t5)
ff9ff06f 00 00000000 80000048 80000040 // j pc - 0x8
00001f17 30 80001040 80000040 80000044 // auipc t5, 0x1
fc3f2023 00 00000000 80000044 80000048 // sw gp, -64(t5)
ff9ff06f 00 00000000 80000048 80000040 // j pc - 0x8
00001f17 30 80001040 80000040 80000044 // auipc t5, 0x1
fc3f2023 00 00000000 80000044 80000048 // sw gp, -64(t5)
ff9ff06f 00 00000000 80000048 80000040 // j pc - 0x8
00001f17 30 80001040 80000040 80000044 // auipc t5, 0x1
fc3f2023 00 00000000 80000044 80000048 // sw gp, -64(t5)
ff9ff06f 00 00000000 80000048 80000040 // j pc - 0x8
00001f17 30 80001040 80000040 80000044 // auipc t5, 0x1
fc3f2023 00 00000000 80000044 80000048 // sw gp, -64(t5)
ff9ff06f 00 00000000 80000048 80000040 // j pc - 0x8
00001f17 30 80001040 80000040 80000044 // auipc t5, 0x1
fc3f2023 00 00000000 80000044 80000048 // sw gp, -64(t5)
ff9ff06f 00 00000000 80000048 80000040 // j pc - 0x8
00001f17 30 80001040 80000040 80000044 // auipc t5, 0x1
fc3f2023 00 00000000 80000044 80000048 // sw gp, -64(t5)
ff9ff06f 00 00000000 80000048 80000040 // j pc - 0x8
00001f17 30 80001040 80000040 80000044 // auipc t5, 0x1
fc3f2023 00 00000000 80000044 80000048 // sw gp, -64(t5)
ff9ff06f 00 00000000 80000048 80000040 // j pc - 0x8
00001f17 30 80001040 80000040 80000044 // auipc t5, 0x1
fc3f2023 00 00000000 80000044 80000048 // sw gp, -64(t5)
ff9ff06f 00 00000000 80000048 80000040 // j pc - 0x8
00001f17 30 80001040 80000040 80000044 // auipc t5, 0x1
fc3f2023 00 00000000 80000044 80000048 // sw gp, -64(t5)
ff9ff06f 00 00000000 80000048 80000040 // j pc - 0x8
00001f17 30 80001040 80000040 80000044 // auipc t5, 0x1
fc3f2023 00 00000000 80000044 80000048 // sw gp, -64(t5)
ff9ff06f 00 00000000 80000048 80000040 // j pc - 0x8
00001f17 30 80001040 80000040 80000044 // auipc t5, 0x1
fc3f2023 00 00000000 80000044 80000048 // sw gp, -64(t5)
ff9ff06f 00 00000000 80000048 80000040 // j pc - 0x8
00001f17 30 80001040 80000040 80000044 // auipc t5, 0x1
fc3f2023 00 00000000 80000044 80000048 // sw gp, -64(t5)
ff9ff06f 00 00000000 80000048 80000040 // j pc - 0x8
00001f17 30 80001040 80000040 80000044 // auipc t5, 0x1
fc3f2023 00 00000000 80000044 80000048 // sw gp, -64(t5)
ff9ff06f 00 00000000 80000048 80000040 // j pc - 0x8
00001f17 30 80001040 80000040 80000044 // auipc t5, 0x1
fc3f2023 00 00000000 80000044 80000048 // sw gp, -64(t5)
ff9ff06f 00 00000000 80000048 80000040 // j pc - 0x8
00001f17 30 80001040 80000040 80000044 // auipc t5, 0x1
fc3f2023 00 00000000 80000044 80000048 // sw gp, -64(t5)
ff9ff06f 00 00000000 80000048 80000040 // j pc - 0x8
00001f17 30 80001040 80000040 80000044 // auipc t5, 0x1
fc3f2023 00 00000000 80000044 80000048 // sw gp, -64(t5)
ff9ff06f 00 00000000 80000048 80000040 // j pc - 0x8
00001f17 30 80001040 80000040 80000044 // auipc t5, 0x1
fc3f2023 00 00000000 80000044 80000048 // sw gp, -64(t5)
ff9ff06f 00 00000000 80000048 80000040 // j pc - 0x8
00001f17 30 80001040 80000040 80000044 // auipc t5, 0x1
fc3f2023 00 00000000 80000044 80000048 // sw gp, -64(t5)
ff9ff06f 00 00000000 80000048 80000040 // j pc - 0x8
00001f17 30 80001040 80000040 80000044 // auipc t5, 0x1
fc3f2023 00 00000000 80000044 80000048 // sw gp, -64(t5)
ff9ff06f 00 00000000 80000048 80000040 // j pc - 0x8
00001f17 30 80001040 80000040 80000044 // auipc t5, 0x1
fc3f2023 00 00000000 80000044 80000048 // sw gp, -64(t5)
ff9ff06f 00 00000000 80000048 80000040 // j pc - 0x8
00001f17 30 80001040 80000040 80000044 // auipc t5, 0x1
fc3f2023 00 00000000 80000044 80000048 // sw gp, -64(t5)
ff9ff06f 00 00000000 80000048 80000040 // j pc - 0x8
00001f17 30 80001040 80000040 80000044 // auipc t5, 0x1
fc3f2023 00 00000000 80000044 80000048 // sw gp, -64(t5)
ff9ff06f 00 00000000 80000048 80000040 // j pc - 0x8
00001f17 30 80001040 80000040 80000044 // auipc t5, 0x1
fc3f2023 00 00000000 80000044 80000048 // sw gp, -64(t5)
ff9ff06f 00 00000000 80000048 80000040 // j pc - 0x8
00001f17 30 80001040 80000040 80000044 // auipc t5, 0x1
fc3f2023 00 00000000 80000044 80000048 // sw gp, -64(t5)
ff9ff06f 00 00000000 80000048 80000040 // j pc - 0x8
00001f17 30 80001040 80000040 80000044 // auipc t5, 0x1
fc3f2023 00 00000000 80000044 80000048 // sw gp, -64(t5)
ff9ff06f 00 00000000 80000048 80000040 // j pc - 0x8
00001f17 30 80001040 80000040 80000044 // auipc t5, 0x1
fc3f2023 00 00000000 80000044 80000048 // sw gp, -64(t5)
ff9ff06f 00 00000000 80000048 80000040 // j pc - 0x8
00001f17 30 80001040 80000040 80000044 // auipc t5, 0x1
fc3f2023 00 00000000 80000044 80000048 // sw gp, -64(t5)
ff9ff06f 00 00000000 80000048 80000040 // j pc - 0x8
00001f17 30 80001040 80000040 80000044 // auipc t5, 0x1
fc3f2023 00 00000000 80000044 80000048 // sw gp, -64(t5)
ff9ff06f 00 00000000 80000048 80000040 // j pc - 0x8
00001f17 30 80001040 80000040 80000044 // auipc t5, 0x1
fc3f2023 00 00000000 80000044 80000048 // sw gp, -64(t5)
ff9ff06f 00 00000000 80000048 80000040 // j pc - 0x8
00001f17 30 80001040 80000040 80000044 // auipc t5, 0x1
fc3f2023 00 00000000 80000044 80000048 // sw gp, -64(t5)
ff9ff06f 00 00000000 80000048 80000040 // j pc - 0x8
00001f17 30 80001040 80000040 80000044 // auipc t5, 0x1
fc3f2023 00 00000000 80000044 80000048 // sw gp, -64(t5)
ff9ff06f 00 00000000 80000048 80000040 // j pc - 0x8
00001f17 30 80001040 80000040 80000044 // auipc t5, 0x1
fc3f2023 00 00000000 80000044 80000048 // sw gp, -64(t5)
ff9ff06f 00 00000000 80000048 80000040 // j pc - 0x8
00001f17 30 80001040 80000040 80000044 // auipc t5, 0x1
fc3f2023 00 00000000 80000044 80000048 // sw gp, -64(t5)
ff9ff06f 00 00000000 80000048 80000040 // j pc - 0x8
00001f17 30 80001040 80000040 80000044 // auipc t5, 0x1
fc3f2023 00 00000000 80000044 80000048 // sw gp, -64(t5)
ff9ff06f 00 00000000 80000048 80000040 // j pc - 0x8
00001f17 30 80001040 80000040 80000044 // auipc t5, 0x1
fc3f2023 00 00000000 80000044 80000048 // sw gp, -64(t5)
ff9ff06f 00 00000000 80000048 80000040 // j pc - 0x8
00001f17 30 80001040 80000040 80000044 // auipc t5, 0x1
fc3f2023 00 00000000 80000044 80000048 // sw gp, -64(t5)
ff9ff06f 00 00000000 80000048 80000040 // j pc - 0x8
00001f17 30 80001040 80000040 80000044 // auipc t5, 0x1
fc3f2023 00 00000000 80000044 80000048 // sw gp, -64(t5)
ff9ff06f 00 00000000 80000048 80000040 // j pc - 0x8
00001f17 30 80001040 80000040 80000044 // auipc t5, 0x1
fc3f2023 00 00000000 80000044 80000048 // sw gp, -64(t5)
ff9ff06f 00 00000000 80000048 80000040 // j pc - 0x8
00001f17 30 80001040 80000040 80000044 // auipc t5, 0x1
fc3f2023 00 00000000 80000044 80000048 // sw gp, -64(t5)
ff9ff06f 00 00000000 80000048 80000040 // j pc - 0x8
00001f17 30 80001040 80000040 80000044 // auipc t5, 0x1
fc3f2023 00 00000000 80000044 80000048 // sw gp, -64(t5)
ff9ff06f 00 00000000 80000048 80000040 // j pc - 0x8
00001f17 30 80001040 80000040 80000044 // auipc t5, 0x1
fc3f2023 00 00000000 80000044 80000048 // sw gp, -64(t5)
ff9ff06f 00 00000000 80000048 80000040 // j pc - 0x8
00001f17 30 80001040 80000040 80000044 // auipc t5, 0x1
fc3f2023 00 00000000 80000044 80000048 // sw gp, -64(t5)
ff9ff06f 00 00000000 80000048 80000040 // j pc - 0x8
00001f17 30 80001040 80000040 80000044 // auipc t5, 0x1
fc3f2023 00 00000000 80000044 80000048 // sw gp, -64(t5)
ff9ff06f 00 00000000 80000048 80000040 // j pc - 0x8
00001f17 30 80001040 80000040 80000044 // auipc t5, 0x1
fc3f2023 00 00000000 80000044 80000048 // sw gp, -64(t5)
ff9ff06f 00 00000000 80000048 80000040 // j pc - 0x8
00001f17 30 80001040 80000040 80000044 // auipc t5, 0x1
fc3f2023 00 00000000 80000044 80000048 // sw gp, -64(t5)
ff9ff06f 00 00000000 80000048 80000040 // j pc - 0x8
00001f17 30 80001040 80000040 80000044 // auipc t5, 0x1
fc3f2023 00 00000000 80000044 80000048 // sw gp, -64(t5)
ff9ff06f 00 00000000 80000048 80000040 // j pc - 0x8
00001f17 30 80001040 80000040 80000044 // auipc t5, 0x1
fc3f2023 00 00000000 80000044 80000048 // sw gp, -64(t5)
ff9ff06f 00 00000000 80000048 80000040 // j pc - 0x8
00001f17 30 80001040 80000040 80000044 // auipc t5, 0x1
fc3f2023 00 00000000 80000044 80000048 // sw gp, -64(t5)
ff9ff06f 00 00000000 80000048 80000040 // j pc - 0x8
00001f17 30 80001040 80000040 80000044 // auipc t5, 0x1
fc3f2023 00 00000000 80000044 80000048 // sw gp, -64(t5)
ff9ff06f 00 00000000 80000048 80000040 // j pc - 0x8
00001f17 30 80001040 80000040 80000044 // auipc t5, 0x1
fc3f2023 00 00000000 80000044 80000048 // sw gp, -64(t5)
ff9ff06f 00 00000000 80000048 80000040 // j pc - 0x8
00001f17 30 80001040 80000040 80000044 // auipc t5, 0x1
fc3f2023 00 00000000 80000044 80000048 // sw gp, -64(t5)
ff9ff06f 00 00000000 80000048 80000040 // j pc - 0x8
00001f17 30 80001040 80000040 80000044 // auipc t5, 0x1
fc3f2023 00 00000000 80000044 80000048 // sw gp, -64(t5)
ff9ff06f 00 00000000 80000048 80000040 // j pc - 0x8
00001f17 30 80001040 80000040 80000044 // auipc t5, 0x1
fc3f2023 00 00000000 80000044 80000048 // sw gp, -64(t5)
ff9ff06f 00 00000000 80000048 80000040 // j pc - 0x8
00001f17 30 80001040 80000040 80000044 // auipc t5, 0x1
fc3f2023 00 00000000 80000044 80000048 // sw gp, -64(t5)
ff9ff06f 00 00000000 80000048 80000040 // j pc - 0x8
00001f17 30 80001040 80000040 80000044 // auipc t5, 0x1
fc3f2023 00 00000000 80000044 80000048 // sw gp, -64(t5)
ff9ff06f 00 00000000 80000048 80000040 // j pc - 0x8
00001f17 30 80001040 80000040 80000044 // auipc t5, 0x1
fc3f2023 00 00000000 80000044 80000048 // sw gp, -64(t5)
ff9ff06f 00 00000000 80000048 80000040 // j pc - 0x8
00001f17 30 80001040 80000040 80000044 // auipc t5, 0x1
fc3f2023 00 00000000 80000044 80000048 // sw gp, -64(t5)
ff9ff06f 00 00000000 80000048 80000040 // j pc - 0x8
00001f17 30 80001040 80000040 80000044 // auipc t5, 0x1
fc3f2023 00 00000000 80000044 80000048 // sw gp, -64(t5)
ff9ff06f 00 00000000 80000048 80000040 // j pc - 0x8
00001f17 30 80001040 80000040 80000044 // auipc t5, 0x1
fc3f2023 00 00000000 80000044 80000048 // sw gp, -64(t5)
ff9ff06f 00 00000000 80000048 80000040 // j pc - 0x8
00001f17 30 80001040 80000040 80000044 // auipc t5, 0x1
fc3f2023 00 00000000 80000044 80000048 // sw gp, -64(t5)
ff9ff06f 00 00000000 80000048 80000040 // j pc - 0x8
00001f17 30 80001040 80000040 80000044 // auipc t5, 0x1
fc3f2023 00 00000000 80000044 80000048 // sw gp, -64(t5)
ff9ff06f 00 00000000 80000048 80000040 // j pc - 0x8
00001f17 30 80001040 80000040 80000044 // auipc t5, 0x1
fc3f2023 00 00000000 80000044 80000048 // sw gp, -64(t5)
ff9ff06f 00 00000000 80000048 80000040 // j pc - 0x8
00001f17 30 80001040 80000040 80000044 // auipc t5, 0x1
fc3f2023 00 00000000 80000044 80000048 // sw gp, -64(t5)
ff9ff06f 00 00000000 80000048 80000040 // j pc - 0x8
00001f17 30 80001040 80000040 80000044 // auipc t5, 0x1
fc3f2023 00 00000000 80000044 80000048 // sw gp, -64(t5)
ff9ff06f 00 00000000 80000048 80000040 // j pc - 0x8
00001f17 30 80001040 80000040 80000044 // auipc t5, 0x1
fc3f2023 00 00000000 80000044 80000048 // sw gp, -64(t5)
ff9ff06f 00 00000000 80000048 80000040 // j pc - 0x8
00001f17 30 80001040 80000040 80000044 // auipc t5, 0x1
fc3f2023 00 00000000 80000044 80000048 // sw gp, -64(t5)
ff9ff06f 00 00000000 80000048 80000040 // j pc - 0x8
00001f17 30 80001040 80000040 80000044 // auipc t5, 0x1
fc3f2023 00 00000000 80000044 80000048 // sw gp, -64(t5)
ff9ff06f 00 00000000 80000048 80000040 // j pc - 0x8
00001f17 30 80001040 80000040 80000044 // auipc t5, 0x1
fc3f2023 00 00000000 80000044 80000048 // sw gp, -64(t5)
ff9ff06f 00 00000000 80000048 80000040 // j pc - 0x8
00001f17 30 80001040 80000040 80000044 // auipc t5, 0x1
fc3f2023 00 00000000 80000044 80000048 // sw gp, -64(t5)
ff9ff06f 00 00000000 80000048 80000040 // j pc - 0x8
00001f17 30 80001040 80000040 80000044 // auipc t5, 0x1
fc3f2023 00 00000000 80000044 80000048 // sw gp, -64(t5)
ff9ff06f 00 00000000 80000048 80000040 // j pc - 0x8
00001f17 30 80001040 80000040 80000044 // auipc t5, 0x1
fc3f2023 00 00000000 80000044 80000048 // sw gp, -64(t5)
ff9ff06f 00 00000000 80000048 80000040 // j pc - 0x8
00001f17 30 80001040 80000040 80000044 // auipc t5, 0x1
fc3f2023 00 00000000 80000044 80000048 // sw gp, -64(t5)
ff9ff06f 00 00000000 80000048 80000040 // j pc - 0x8
00001f17 30 80001040 80000040 80000044 // auipc t5, 0x1
fc3f2023 00 00000000 80000044 80000048 // sw gp, -64(t5)
ff9ff06f 00 00000000 80000048 80000040 // j pc - 0x8
00001f17 30 80001040 80000040 80000044 // auipc t5, 0x1
fc3f2023 00 00000000 80000044 80000048 // sw gp, -64(t5)
ff9ff06f 00 00000000 80000048 80000040 // j pc - 0x8
00001f17 30 80001040 80000040 80000044 // auipc t5, 0x1
fc3f2023 00 00000000 80000044 80000048 // sw gp, -64(t5)
ff9ff06f 00 00000000 80000048 80000040 // j pc - 0x8
00001f17 30 80001040 80000040 80000044 // auipc t5, 0x1
fc3f2023 00 00000000 80000044 80000048 // sw gp, -64(t5)
ff9ff06f 00 00000000 80000048 80000040 // j pc - 0x8
00001f17 30 80001040 80000040 80000044 // auipc t5, 0x1
fc3f2023 00 00000000 80000044 80000048 // sw gp, -64(t5)
ff9ff06f 00 00000000 80000048 80000040 // j pc - 0x8
00001f17 30 80001040 80000040 80000044 // auipc t5, 0x1
fc3f2023 00 00000000 80000044 80000048 // sw gp, -64(t5)
ff9ff06f 00 00000000 80000048 80000040 // j pc - 0x8
00001f17 30 80001040 80000040 80000044 // auipc t5, 0x1
fc3f2023 00 00000000 80000044 80000048 // sw gp, -64(t5)
ff9ff06f 00 00000000 80000048 80000040 // j pc - 0x8
00001f17 30 80001040 80000040 80000044 // auipc t5, 0x1
fc3f2023 00 00000000 80000044 80000048 // sw gp, -64(t5)
ff9ff06f 00 00000000 80000048 80000040 // j pc - 0x8
00001f17 30 80001040 80000040 80000044 // auipc t5, 0x1
fc3f2023 00 00000000 80000044 80000048 // sw gp, -64(t5)
ff9ff06f 00 00000000 80000048 80000040 // j pc - 0x8
00001f17 30 80001040 80000040 80000044 // auipc t5, 0x1
fc3f2023 00 00000000 80000044 80000048 // sw gp, -64(t5)
ff9ff06f 00 00000000 80000048 80000040 // j pc - 0x8
00001f17 30 80001040 80000040 80000044 // auipc t5, 0x1
fc3f2023 00 00000000 80000044 80000048 // sw gp, -64(t5)
ff9ff06f 00 00000000 80000048 80000040 // j pc - 0x8
00001f17 30 80001040 80000040 80000044 // auipc t5, 0x1
fc3f2023 00 00000000 80000044 80000048 // sw gp, -64(t5)
ff9ff06f 00 00000000 80000048 80000040 // j pc - 0x8
00001f17 30 80001040 80000040 80000044 // auipc t5, 0x1
fc3f2023 00 00000000 80000044 80000048 // sw gp, -64(t5)
ff9ff06f 00 00000000 80000048 80000040 // j pc - 0x8
00001f17 30 80001040 80000040 80000044 // auipc t5, 0x1
fc3f2023 00 00000000 80000044 80000048 // sw gp, -64(t5)
ff9ff06f 00 00000000 80000048 80000040 // j pc - 0x8
00001f17 30 80001040 80000040 80000044 // auipc t5, 0x1
fc3f2023 00 00000000 80000044 80000048 // sw gp, -64(t5)
ff9ff06f 00 00000000 80000048 80000040 // j pc - 0x8
00001f17 30 80001040 80000040 80000044 // auipc t5, 0x1
fc3f2023 00 00000000 80000044 80000048 // sw gp, -64(t5)
ff9ff06f 00 00000000 80000048 80000040 // j pc - 0x8
00001f17 30 80001040 80000040 80000044 // auipc t5, 0x1
fc3f2023 00 00000000 80000044 80000048 // sw gp, -64(t5)
ff9ff06f 00 00000000 80000048 80000040 // j pc - 0x8
00001f17 30 80001040 80000040 80000044 // auipc t5, 0x1
fc3f2023 00 00000000 80000044 80000048 // sw gp, -64(t5)
ff9ff06f 00 00000000 80000048 80000040 // j pc - 0x8
00001f17 30 80001040 80000040 80000044 // auipc t5, 0x1
fc3f2023 00 00000000 80000044 80000048 // sw gp, -64(t5)
ff9ff06f 00 00000000 80000048 80000040 // j pc - 0x8
00001f17 30 80001040 80000040 80000044 // auipc t5, 0x1
fc3f2023 00 00000000 80000044 80000048 // sw gp, -64(t5)
ff9ff06f 00 00000000 80000048 80000040 // j pc - 0x8
00001f17 30 80001040 80000040 80000044 // auipc t5, 0x1
fc3f2023 00 00000000 80000044 80000048 // sw gp, -64(t5)
ff9ff06f 00 00000000 80000048 80000040 // j pc - 0x8
00001f17 30 80001040 80000040 80000044 // auipc t5, 0x1
fc3f2023 00 00000000 80000044 80000048 // sw gp, -64(t5)
ff9ff06f 00 00000000 80000048 80000040 // j pc - 0x8
00001f17 30 80001040 80000040 80000044 // auipc t5, 0x1
fc3f2023 00 00000000 80000044 80000048 // sw gp, -64(t5)
ff9ff06f 00 00000000 80000048 80000040 // j pc - 0x8
00001f17 30 80001040 80000040 80000044 // auipc t5, 0x1
fc3f2023 00 00000000 80000044 80000048 // sw gp, -64(t5)
ff9ff06f 00 00000000 80000048 80000040 // j pc - 0x8
00001f17 30 80001040 80000040 80000044 // auipc t5, 0x1
fc3f2023 00 00000000 80000044 80000048 // sw gp, -64(t5)
ff9ff06f 00 00000000 80000048 80000040 // j pc - 0x8
00001f17 30 80001040 80000040 80000044 // auipc t5, 0x1
fc3f2023 00 00000000 80000044 80000048 // sw gp, -64(t5)
ff9ff06f 00 00000000 80000048 80000040 // j pc - 0x8
00001f17 30 80001040 80000040 80000044 // auipc t5, 0x1
fc3f2023 00 00000000 80000044 80000048 // sw gp, -64(t5)
ff9ff06f 00 00000000 80000048 80000040 // j pc - 0x8
00001f17 30 80001040 80000040 80000044 // auipc t5, 0x1
fc3f2023 00 00000000 80000044 80000048 // sw gp, -64(t5)
ff9ff06f 00 00000000 80000048 80000040 // j pc - 0x8
00001f17 30 80001040 80000040 80000044 // auipc t5, 0x1
fc3f2023 00 00000000 80000044 80000048 // sw gp, -64(t5)
ff9ff06f 00 00000000 80000048 80000040 // j pc - 0x8
00001f17 30 80001040 80000040 80000044 // auipc t5, 0x1
fc3f2023 00 00000000 80000044 80000048 // sw gp, -64(t5)
ff9ff06f 00 00000000 80000048 80000040 // j pc - 0x8
00001f17 30 80001040 80000040 80000044 // auipc t5, 0x1
fc3f2023 00 00000000 80000044 80000048 // sw gp, -64(t5)
ff9ff06f 00 00000000 80000048 80000040 // j pc - 0x8
00001f17 30 80001040 80000040 80000044 // auipc t5, 0x1
fc3f2023 00 00000000 80000044 80000048 // sw gp, -64(t5)
ff9ff06f 00 00000000 80000048 80000040 // j pc - 0x8
00001f17 30 80001040 80000040 80000044 // auipc t5, 0x1
fc3f2023 00 00000000 80000044 80000048 // sw gp, -64(t5)
ff9ff06f 00 00000000 80000048 80000040 // j pc - 0x8
00001f17 30 80001040 80000040 80000044 // auipc t5, 0x1
fc3f2023 00 00000000 80000044 80000048 // sw gp, -64(t5)
ff9ff06f 00 00000000 80000048 80000040 // j pc - 0x8
00001f17 30 80001040 80000040 80000044 // auipc t5, 0x1
fc3f2023 00 00000000 80000044 80000048 // sw gp, -64(t5)
ff9ff06f 00 00000000 80000048 80000040 // j pc - 0x8
00001f17 30 80001040 80000040 80000044 // auipc t5, 0x1
fc3f2023 00 00000000 80000044 80000048 // sw gp, -64(t5)
ff9ff06f 00 00000000 80000048 80000040 // j pc - 0x8
00001f17 30 80001040 80000040 80000044 // auipc t5, 0x1
fc3f2023 00 00000000 80000044 80000048 // sw gp, -64(t5)
ff9ff06f 00 00000000 80000048 80000040 // j pc - 0x8
00001f17 30 80001040 80000040 80000044 // auipc t5, 0x1
fc3f2023 00 00000000 80000044 80000048 // sw gp, -64(t5)
ff9ff06f 00 00000000 80000048 80000040 // j pc - 0x8
00001f17 30 80001040 80000040 80000044 // auipc t5, 0x1
fc3f2023 00 00000000 80000044 80000048 // sw gp, -64(t5)
ff9ff06f 00 00000000 80000048 80000040 // j pc - 0x8
00001f17 30 80001040 80000040 80000044 // auipc t5, 0x1
fc3f2023 00 00000000 80000044 80000048 // sw gp, -64(t5)
ff9ff06f 00 00000000 80000048 80000040 // j pc - 0x8
00001f17 30 80001040 80000040 80000044 // auipc t5, 0x1
fc3f2023 00 00000000 80000044 80000048 // sw gp, -64(t5)
ff9ff06f 00 00000000 80000048 80000040 // j pc - 0x8
00001f17 30 80001040 80000040 80000044 // auipc t5, 0x1
fc3f2023 00 00000000 80000044 80000048 // sw gp, -64(t5)
ff9ff06f 00 00000000 80000048 80000040 // j pc - 0x8
00001f17 30 80001040 80000040 80000044 // auipc t5, 0x1
fc3f2023 00 00000000 80000044 80000048 // sw gp, -64(t5)
ff9ff06f 00 00000000 80000048 80000040 // j pc - 0x8
00001f17 30 80001040 80000040 80000044 // auipc t5, 0x1
fc3f2023 00 00000000 80000044 80000048 // sw gp, -64(t5)
ff9ff06f 00 00000000 80000048 80000040 // j pc - 0x8
00001f17 30 80001040 80000040 80000044 // auipc t5, 0x1
fc3f2023 00 00000000 80000044 80000048 // sw gp, -64(t5)
ff9ff06f 00 00000000 80000048 80000040 // j pc - 0x8
00001f17 30 80001040 80000040 80000044 // auipc t5, 0x1
fc3f2023 00 00000000 80000044 80000048 // sw gp, -64(t5)
ff9ff06f 00 00000000 80000048 80000040 // j pc - 0x8
00001f17 30 80001040 80000040 80000044 // auipc t5, 0x1
fc3f2023 00 00000000 80000044 80000048 // sw gp, -64(t5)
ff9ff06f 00 00000000 80000048 80000040 // j pc - 0x8
00001f17 30 80001040 80000040 80000044 // auipc t5, 0x1
fc3f2023 00 00000000 80000044 80000048 // sw gp, -64(t5)
ff9ff06f 00 00000000 80000048 80000040 // j pc - 0x8
00001f17 30 80001040 80000040 80000044 // auipc t5, 0x1
fc3f2023 00 00000000 80000044 80000048 // sw gp, -64(t5)
ff9ff06f 00 00000000 80000048 80000040 // j pc - 0x8
00001f17 30 80001040 80000040 80000044 // auipc t5, 0x1
fc3f2023 00 00000000 80000044 80000048 // sw gp, -64(t5)
ff9ff06f 00 00000000 80000048 80000040 // j pc - 0x8
00001f17 30 80001040 80000040 80000044 // auipc t5, 0x1
fc3f2023 00 00000000 80000044 80000048 // sw gp, -64(t5)
ff9ff06f 00 00000000 80000048 80000040 // j pc - 0x8
00001f17 30 80001040 80000040 80000044 // auipc t5, 0x1
fc3f2023 00 00000000 80000044 80000048 // sw gp, -64(t5)
ff9ff06f 00 00000000 80000048 80000040 // j pc - 0x8
00001f17 30 80001040 80000040 80000044 // auipc t5, 0x1
fc3f2023 00 00000000 80000044 80000048 // sw gp, -64(t5)
ff9ff06f 00 00000000 80000048 80000040 // j pc - 0x8
00001f17 30 80001040 80000040 80000044 // auipc t5, 0x1
fc3f2023 00 00000000 80000044 80000048 // sw gp, -64(t5)
ff9ff06f 00 00000000 80000048 80000040 // j pc - 0x8
00001f17 30 80001040 80000040 80000044 // auipc t5, 0x1
fc3f2023 00 00000000 80000044 80000048 // sw gp, -64(t5)
ff9ff06f 00 00000000 80000048 80000040 // j pc - 0x8
00001f17 30 80001040 80000040 80000044 // auipc t5, 0x1
fc3f2023 00 00000000 80000044 80000048 // sw gp, -64(t5)
ff9ff06f 00 00000000 80000048 80000040 // j pc - 0x8
00001f17 30 80001040 80000040 80000044 // auipc t5, 0x1
fc3f2023 00 00000000 80000044 80000048 // sw gp, -64(t5)
ff9ff06f 00 00000000 80000048 80000040 // j pc - 0x8
00001f17 30 80001040 80000040 80000044 // auipc t5, 0x1
fc3f2023 00 00000000 80000044 80000048 // sw gp, -64(t5)
ff9ff06f 00 00000000 80000048 80000040 // j pc - 0x8
00001f17 30 80001040 80000040 80000044 // auipc t5, 0x1
fc3f2023 00 00000000 80000044 80000048 // sw gp, -64(t5)
ff9ff06f 00 00000000 80000048 80000040 // j pc - 0x8
00001f17 30 80001040 80000040 80000044 // auipc t5, 0x1
fc3f2023 00 00000000 80000044 80000048 // sw gp, -64(t5)
ff9ff06f 00 00000000 80000048 80000040 // j pc - 0x8
00001f17 30 80001040 80000040 80000044 // auipc t5, 0x1
fc3f2023 00 00000000 80000044 80000048 // sw gp, -64(t5)
ff9ff06f 00 00000000 80000048 80000040 // j pc - 0x8
00001f17 30 80001040 80000040 80000044 // auipc t5, 0x1
fc3f2023 00 00000000 80000044 80000048 // sw gp, -64(t5)
ff9ff06f 00 00000000 80000048 80000040 // j pc - 0x8
00001f17 30 80001040 80000040 80000044 // auipc t5, 0x1
fc3f2023 00 00000000 80000044 80000048 // sw gp, -64(t5)
ff9ff06f 00 00000000 80000048 80000040 // j pc - 0x8
00001f17 30 80001040 80000040 80000044 // auipc t5, 0x1
fc3f2023 00 00000000 80000044 80000048 // sw gp, -64(t5)
ff9ff06f 00 00000000 80000048 80000040 // j pc - 0x8
00001f17 30 80001040 80000040 80000044 // auipc t5, 0x1
fc3f2023 00 00000000 80000044 80000048 // sw gp, -64(t5)
ff9ff06f 00 00000000 80000048 80000040 // j pc - 0x8
00001f17 30 80001040 80000040 80000044 // auipc t5, 0x1
fc3f2023 00 00000000 80000044 80000048 // sw gp, -64(t5)
ff9ff06f 00 00000000 80000048 80000040 // j pc - 0x8
00001f17 30 80001040 80000040 80000044 // auipc t5, 0x1
fc3f2023 00 00000000 80000044 80000048 // sw gp, -64(t5)
ff9ff06f 00 00000000 80000048 80000040 // j pc - 0x8
00001f17 30 80001040 80000040 80000044 // auipc t5, 0x1
fc3f2023 00 00000000 80000044 80000048 // sw gp, -64(t5)
ff9ff06f 00 00000000 80000048 80000040 // j pc - 0x8
00001f17 30 80001040 80000040 80000044 // auipc t5, 0x1
fc3f2023 00 00000000 80000044 80000048 // sw gp, -64(t5)
ff9ff06f 00 00000000 80000048 80000040 // j pc - 0x8
00001f17 30 80001040 80000040 80000044 // auipc t5, 0x1
fc3f2023 00 00000000 80000044 80000048 // sw gp, -64(t5)
ff9ff06f 00 00000000 80000048 80000040 // j pc - 0x8
00001f17 30 80001040 80000040 80000044 // auipc t5, 0x1
fc3f2023 00 00000000 80000044 80000048 // sw gp, -64(t5)
ff9ff06f 00 00000000 80000048 80000040 // j pc - 0x8
00001f17 30 80001040 80000040 80000044 // auipc t5, 0x1
fc3f2023 00 00000000 80000044 80000048 // sw gp, -64(t5)
ff9ff06f 00 00000000 80000048 80000040 // j pc - 0x8
00001f17 30 80001040 80000040 80000044 // auipc t5, 0x1
fc3f2023 00 00000000 80000044 80000048 // sw gp, -64(t5)
ff9ff06f 00 00000000 80000048 80000040 // j pc - 0x8
00001f17 30 80001040 80000040 80000044 // auipc t5, 0x1
fc3f2023 00 00000000 80000044 80000048 // sw gp, -64(t5)
ff9ff06f 00 00000000 80000048 80000040 // j pc - 0x8
00001f17 30 80001040 80000040 80000044 // auipc t5, 0x1
fc3f2023 00 00000000 80000044 80000048 // sw gp, -64(t5)
ff9ff06f 00 00000000 80000048 80000040 // j pc - 0x8
00001f17 30 80001040 80000040 80000044 // auipc t5, 0x1
fc3f2023 00 00000000 80000044 80000048 // sw gp, -64(t5)
ff9ff06f 00 00000000 80000048 80000040 // j pc - 0x8
00001f17 30 80001040 80000040 80000044 // auipc t5, 0x1
fc3f2023 00 00000000 80000044 80000048 // sw gp, -64(t5)
ff9ff06f 00 00000000 80000048 80000040 // j pc - 0x8
00001f17 30 80001040 80000040 80000044 // auipc t5, 0x1
fc3f2023 00 00000000 80000044 80000048 // sw gp, -64(t5)
ff9ff06f 00 00000000 80000048 80000040 // j pc - 0x8
00001f17 30 80001040 80000040 80000044 // auipc t5, 0x1
fc3f2023 00 00000000 80000044 80000048 // sw gp, -64(t5)
ff9ff06f 00 00000000 80000048 80000040 // j pc - 0x8
00001f17 30 80001040 80000040 80000044 // auipc t5, 0x1
fc3f2023 00 00000000 80000044 80000048 // sw gp, -64(t5)
ff9ff06f 00 00000000 80000048 80000040 // j pc - 0x8
00001f17 30 80001040 80000040 80000044 // auipc t5, 0x1
fc3f2023 00 00000000 80000044 80000048 // sw gp, -64(t5)
ff9ff06f 00 00000000 80000048 80000040 // j pc - 0x8
00001f17 30 80001040 80000040 80000044 // auipc t5, 0x1
fc3f2023 00 00000000 80000044 80000048 // sw gp, -64(t5)
ff9ff06f 00 00000000 80000048 80000040 // j pc - 0x8
00001f17 30 80001040 80000040 80000044 // auipc t5, 0x1
fc3f2023 00 00000000 80000044 80000048 // sw gp, -64(t5)
ff9ff06f 00 00000000 80000048 80000040 // j pc - 0x8
00001f17 30 80001040 80000040 80000044 // auipc t5, 0x1
fc3f2023 00 00000000 80000044 80000048 // sw gp, -64(t5)
ff9ff06f 00 00000000 80000048 80000040 // j pc - 0x8
00001f17 30 80001040 80000040 80000044 // auipc t5, 0x1
fc3f2023 00 00000000 80000044 80000048 // sw gp, -64(t5)
ff9ff06f 00 00000000 80000048 80000040 // j pc - 0x8
00001f17 30 80001040 80000040 80000044 // auipc t5, 0x1
fc3f2023 00 00000000 80000044 80000048 // sw gp, -64(t5)
ff9ff06f 00 00000000 80000048 80000040 // j pc - 0x8
00001f17 30 80001040 80000040 80000044 // auipc t5, 0x1
fc3f2023 00 00000000 80000044 80000048 // sw gp, -64(t5)
ff9ff06f 00 00000000 80000048 80000040 // j pc - 0x8
00001f17 30 80001040 80000040 80000044 // auipc t5, 0x1
fc3f2023 00 00000000 80000044 80000048 // sw gp, -64(t5)
ff9ff06f 00 00000000 80000048 80000040 // j pc - 0x8
00001f17 30 80001040 80000040 80000044 // auipc t5, 0x1
fc3f2023 00 00000000 80000044 80000048 // sw gp, -64(t5)
ff9ff06f 00 00000000 80000048 80000040 // j pc - 0x8
00001f17 30 80001040 80000040 80000044 // auipc t5, 0x1
fc3f2023 00 00000000 80000044 80000048 // sw gp, -64(t5)
ff9ff06f 00 00000000 80000048 80000040 // j pc - 0x8
00001f17 30 80001040 80000040 80000044 // auipc t5, 0x1
fc3f2023 00 00000000 80000044 80000048 // sw gp, -64(t5)
ff9ff06f 00 00000000 80000048 80000040 // j pc - 0x8
00001f17 30 80001040 80000040 80000044 // auipc t5, 0x1
fc3f2023 00 00000000 80000044 80000048 // sw gp, -64(t5)
ff9ff06f 00 00000000 80000048 80000040 // j pc - 0x8
00001f17 30 80001040 80000040 80000044 // auipc t5, 0x1
fc3f2023 00 00000000 80000044 80000048 // sw gp, -64(t5)
ff9ff06f 00 00000000 80000048 80000040 // j pc - 0x8
00001f17 30 80001040 80000040 80000044 // auipc t5, 0x1
fc3f2023 00 00000000 80000044 80000048 // sw gp, -64(t5)
ff9ff06f 00 00000000 80000048 80000040 // j pc - 0x8
00001f17 30 80001040 80000040 80000044 // auipc t5, 0x1
fc3f2023 00 00000000 80000044 80000048 // sw gp, -64(t5)
ff9ff06f 00 00000000 80000048 80000040 // j pc - 0x8
00001f17 30 80001040 80000040 80000044 // auipc t5, 0x1
fc3f2023 00 00000000 80000044 80000048 // sw gp, -64(t5)
ff9ff06f 00 00000000 80000048 80000040 // j pc - 0x8
00001f17 30 80001040 80000040 80000044 // auipc t5, 0x1
fc3f2023 00 00000000 80000044 80000048 // sw gp, -64(t5)
ff9ff06f 00 00000000 80000048 80000040 // j pc - 0x8
00001f17 30 80001040 80000040 80000044 // auipc t5, 0x1
fc3f2023 00 00000000 80000044 80000048 // sw gp, -64(t5)
ff9ff06f 00 00000000 80000048 80000040 // j pc - 0x8
00001f17 30 80001040 80000040 80000044 // auipc t5, 0x1
fc3f2023 00 00000000 80000044 80000048 // sw gp, -64(t5)
ff9ff06f 00 00000000 80000048 80000040 // j pc - 0x8
00001f17 30 80001040 80000040 80000044 // auipc t5, 0x1
fc3f2023 00 00000000 80000044 80000048 // sw gp, -64(t5)
ff9ff06f 00 00000000 80000048 80000040 // j pc - 0x8
00001f17 30 80001040 80000040 80000044 // auipc t5, 0x1
fc3f2023 00 00000000 80000044 80000048 // sw gp, -64(t5)
ff9ff06f 00 00000000 80000048 80000040 // j pc - 0x8
00001f17 30 80001040 80000040 80000044 // auipc t5, 0x1
fc3f2023 00 00000000 80000044 80000048 // sw gp, -64(t5)
ff9ff06f 00 00000000 80000048 80000040 // j pc - 0x8
00001f17 30 80001040 80000040 80000044 // auipc t5, 0x1
fc3f2023 00 00000000 80000044 80000048 // sw gp, -64(t5)
ff9ff06f 00 00000000 80000048 80000040 // j pc - 0x8
00001f17 30 80001040 80000040 80000044 // auipc t5, 0x1
fc3f2023 00 00000000 80000044 80000048 // sw gp, -64(t5)
ff9ff06f 00 00000000 80000048 80000040 // j pc - 0x8
00001f17 30 80001040 80000040 80000044 // auipc t5, 0x1
fc3f2023 00 00000000 80000044 80000048 // sw gp, -64(t5)
ff9ff06f 00 00000000 80000048 80000040 // j pc - 0x8
00001f17 30 80001040 80000040 80000044 // auipc t5, 0x1
fc3f2023 00 00000000 80000044 80000048 // sw gp, -64(t5)
ff9ff06f 00 00000000 80000048 80000040 // j pc - 0x8
00001f17 30 80001040 80000040 80000044 // auipc t5, 0x1
fc3f2023 00 00000000 80000044 80000048 // sw gp, -64(t5)
ff9ff06f 00 00000000 80000048 80000040 // j pc - 0x8
00001f17 30 80001040 80000040 80000044 // auipc t5, 0x1
fc3f2023 00 00000000 80000044 80000048 // sw gp, -64(t5)
ff9ff06f 00 00000000 80000048 80000040 // j pc - 0x8
00001f17 30 80001040 80000040 80000044 // auipc t5, 0x1
fc3f2023 00 00000000 80000044 80000048 // sw gp, -64(t5)
ff9ff06f 00 00000000 80000048 80000040 // j pc - 0x8
00001f17 30 80001040 80000040 80000044 // auipc t5, 0x1
fc3f2023 00 00000000 80000044 80000048 // sw gp, -64(t5)
ff9ff06f 00 00000000 80000048 80000040 // j pc - 0x8
00001f17 30 80001040 80000040 80000044 // auipc t5, 0x1
fc3f2023 00 00000000 80000044 80000048 // sw gp, -64(t5)
ff9ff06f 00 00000000 80000048 80000040 // j pc - 0x8
00001f17 30 80001040 80000040 80000044 // auipc t5, 0x1
fc3f2023 00 00000000 80000044 80000048 // sw gp, -64(t5)
ff9ff06f 00 00000000 80000048 80000040 // j pc - 0x8
00001f17 30 80001040 80000040 80000044 // auipc t5, 0x1
fc3f2023 00 00000000 80000044 80000048 // sw gp, -64(t5)
ff9ff06f 00 00000000 80000048 80000040 // j pc - 0x8
00001f17 30 80001040 80000040 80000044 // auipc t5, 0x1
fc3f2023 00 00000000 80000044 80000048 // sw gp, -64(t5)
ff9ff06f 00 00000000 80000048 80000040 // j pc - 0x8
00001f17 30 80001040 80000040 80000044 // auipc t5, 0x1
fc3f2023 00 00000000 80000044 80000048 // sw gp, -64(t5)
ff9ff06f 00 00000000 80000048 80000040 // j pc - 0x8
00001f17 30 80001040 80000040 80000044 // auipc t5, 0x1
fc3f2023 00 00000000 80000044 80000048 // sw gp, -64(t5)
ff9ff06f 00 00000000 80000048 80000040 // j pc - 0x8
00001f17 30 80001040 80000040 80000044 // auipc t5, 0x1
fc3f2023 00 00000000 80000044 80000048 // sw gp, -64(t5)
ff9ff06f 00 00000000 80000048 80000040 // j pc - 0x8
00001f17 30 80001040 80000040 80000044 // auipc t5, 0x1
fc3f2023 00 00000000 80000044 80000048 // sw gp, -64(t5)
ff9ff06f 00 00000000 80000048 80000040 // j pc - 0x8
00001f17 30 80001040 80000040 80000044 // auipc t5, 0x1
fc3f2023 00 00000000 80000044 80000048 // sw gp, -64(t5)
ff9ff06f 00 00000000 80000048 80000040 // j pc - 0x8
00001f17 30 80001040 80000040 80000044 // auipc t5, 0x1
fc3f2023 00 00000000 80000044 80000048 // sw gp, -64(t5)
ff9ff06f 00 00000000 80000048 80000040 // j pc - 0x8
00001f17 30 80001040 80000040 80000044 // auipc t5, 0x1
fc3f2023 00 00000000 80000044 80000048 // sw gp, -64(t5)
ff9ff06f 00 00000000 80000048 80000040 // j pc - 0x8
00001f17 30 80001040 80000040 80000044 // auipc t5, 0x1
fc3f2023 00 00000000 80000044 80000048 // sw gp, -64(t5)
ff9ff06f 00 00000000 80000048 80000040 // j pc - 0x8
00001f17 30 80001040 80000040 80000044 // auipc t5, 0x1
fc3f2023 00 00000000 80000044 80000048 // sw gp, -64(t5)
ff9ff06f 00 00000000 80000048 80000040 // j pc - 0x8
00001f17 30 80001040 80000040 80000044 // auipc t5, 0x1
fc3f2023 00 00000000 80000044 80000048 // sw gp, -64(t5)
ff9ff06f 00 00000000 80000048 80000040 // j pc - 0x8
00001f17 30 80001040 80000040 80000044 // auipc t5, 0x1
fc3f2023 00 00000000 80000044 80000048 // sw gp, -64(t5)
ff9ff06f 00 00000000 80000048 80000040 // j pc - 0x8
00001f17 30 80001040 80000040 80000044 // auipc t5, 0x1
fc3f2023 00 00000000 80000044 80000048 // sw gp, -64(t5)
ff9ff06f 00 00000000 80000048 80000040 // j pc - 0x8
00001f17 30 80001040 80000040 80000044 // auipc t5, 0x1
fc3f2023 00 00000000 80000044 80000048 // sw gp, -64(t5)
ff9ff06f 00 00000000 80000048 80000040 // j pc - 0x8
00001f17 30 80001040 80000040 80000044 // auipc t5, 0x1
fc3f2023 00 00000000 80000044 80000048 // sw gp, -64(t5)
ff9ff06f 00 00000000 80000048 80000040 // j pc - 0x8
00001f17 30 80001040 80000040 80000044 // auipc t5, 0x1
fc3f2023 00 00000000 80000044 80000048 // sw gp, -64(t5)
ff9ff06f 00 00000000 80000048 80000040 // j pc - 0x8
00001f17 30 80001040 80000040 80000044 // auipc t5, 0x1
fc3f2023 00 00000000 80000044 80000048 // sw gp, -64(t5)
ff9ff06f 00 00000000 80000048 80000040 // j pc - 0x8
00001f17 30 80001040 80000040 80000044 // auipc t5, 0x1
fc3f2023 00 00000000 80000044 80000048 // sw gp, -64(t5)
ff9ff06f 00 00000000 80000048 80000040 // j pc - 0x8
00001f17 30 80001040 80000040 80000044 // auipc t5, 0x1
fc3f2023 00 00000000 80000044 80000048 // sw gp, -64(t5)
ff9ff06f 00 00000000 80000048 80000040 // j pc - 0x8
00001f17 30 80001040 80000040 80000044 // auipc t5, 0x1
fc3f2023 00 00000000 80000044 80000048 // sw gp, -64(t5)
ff9ff06f 00 00000000 80000048 80000040 // j pc - 0x8
00001f17 30 80001040 80000040 80000044 // auipc t5, 0x1
fc3f2023 00 00000000 80000044 80000048 // sw gp, -64(t5)
ff9ff06f 00 00000000 80000048 80000040 // j pc - 0x8
00001f17 30 80001040 80000040 80000044 // auipc t5, 0x1
fc3f2023 00 00000000 80000044 80000048 // sw gp, -64(t5)
ff9ff06f 00 00000000 80000048 80000040 // j pc - 0x8
00001f17 30 80001040 80000040 80000044 // auipc t5, 0x1
fc3f2023 00 00000000 80000044 80000048 // sw gp, -64(t5)
ff9ff06f 00 00000000 80000048 80000040 // j pc - 0x8
00001f17 30 80001040 80000040 80000044 // auipc t5, 0x1
fc3f2023 00 00000000 80000044 80000048 // sw gp, -64(t5)
ff9ff06f 00 00000000 80000048 80000040 // j pc - 0x8
00001f17 30 80001040 80000040 80000044 // auipc t5, 0x1
fc3f2023 00 00000000 80000044 80000048 // sw gp, -64(t5)
ff9ff06f 00 00000000 80000048 80000040 // j pc - 0x8
00001f17 30 80001040 80000040 80000044 // auipc t5, 0x1
fc3f2023 00 00000000 80000044 80000048 // sw gp, -64(t5)
ff9ff06f 00 00000000 80000048 80000040 // j pc - 0x8
00001f17 30 80001040 80000040 80000044 // auipc t5, 0x1
fc3f2023 00 00000000 80000044 80000048 // sw gp, -64(t5)
ff9ff06f 00 00000000 80000048 80000040 // j pc - 0x8
00001f17 30 80001040 80000040 80000044 // auipc t5, 0x1
fc3f2023 00 00000000 80000044 80000048 // sw gp, -64(t5)
ff9ff06f 00 00000000 80000048 80000040 // j pc - 0x8
00001f17 30 80001040 80000040 80000044 // auipc t5, 0x1
fc3f2023 00 00000000 80000044 80000048 // sw gp, -64(t5)
ff9ff06f 00 00000000 80000048 80000040 // j pc - 0x8
00001f17 30 80001040 80000040 80000044 // auipc t5, 0x1
fc3f2023 00 00000000 80000044 80000048 // sw gp, -64(t5)
ff9ff06f 00 00000000 80000048 80000040 // j pc - 0x8
00001f17 30 80001040 80000040 80000044 // auipc t5, 0x1
fc3f2023 00 00000000 80000044 80000048 // sw gp, -64(t5)
ff9ff06f 00 00000000 80000048 80000040 // j pc - 0x8
00001f17 30 80001040 80000040 80000044 // auipc t5, 0x1
fc3f2023 00 00000000 80000044 80000048 // sw gp, -64(t5)
ff9ff06f 00 00000000 80000048 80000040 // j pc - 0x8
00001f17 30 80001040 80000040 80000044 // auipc t5, 0x1
fc3f2023 00 00000000 80000044 80000048 // sw gp, -64(t5)
ff9ff06f 00 00000000 80000048 80000040 // j pc - 0x8
00001f17 30 80001040 80000040 80000044 // auipc t5, 0x1
fc3f2023 00 00000000 80000044 80000048 // sw gp, -64(t5)
ff9ff06f 00 00000000 80000048 80000040 // j pc - 0x8
00001f17 30 80001040 80000040 80000044 // auipc t5, 0x1
fc3f2023 00 00000000 80000044 80000048 // sw gp, -64(t5)
ff9ff06f 00 00000000 80000048 80000040 // j pc - 0x8
00001f17 30 80001040 80000040 80000044 // auipc t5, 0x1
fc3f2023 00 00000000 80000044 80000048 // sw gp, -64(t5)
ff9ff06f 00 00000000 80000048 80000040 // j pc - 0x8
00001f17 30 80001040 80000040 80000044 // auipc t5, 0x1
fc3f2023 00 00000000 80000044 80000048 // sw gp, -64(t5)
ff9ff06f 00 00000000 80000048 80000040 // j pc - 0x8
00001f17 30 80001040 80000040 80000044 // auipc t5, 0x1
fc3f2023 00 00000000 80000044 80000048 // sw gp, -64(t5)
ff9ff06f 00 00000000 80000048 80000040 // j pc - 0x8
00001f17 30 80001040 80000040 80000044 // auipc t5, 0x1
fc3f2023 00 00000000 80000044 80000048 // sw gp, -64(t5)
ff9ff06f 00 00000000 80000048 80000040 // j pc - 0x8
00001f17 30 80001040 80000040 80000044 // auipc t5, 0x1
fc3f2023 00 00000000 80000044 80000048 // sw gp, -64(t5)
ff9ff06f 00 00000000 80000048 80000040 // j pc - 0x8
00001f17 30 80001040 80000040 80000044 // auipc t5, 0x1
fc3f2023 00 00000000 80000044 80000048 // sw gp, -64(t5)
ff9ff06f 00 00000000 80000048 80000040 // j pc - 0x8
00001f17 30 80001040 80000040 80000044 // auipc t5, 0x1
fc3f2023 00 00000000 80000044 80000048 // sw gp, -64(t5)
ff9ff06f 00 00000000 80000048 80000040 // j pc - 0x8
00001f17 30 80001040 80000040 80000044 // auipc t5, 0x1
fc3f2023 00 00000000 80000044 80000048 // sw gp, -64(t5)
ff9ff06f 00 00000000 80000048 80000040 // j pc - 0x8
00001f17 30 80001040 80000040 80000044 // auipc t5, 0x1
fc3f2023 00 00000000 80000044 80000048 // sw gp, -64(t5)
ff9ff06f 00 00000000 80000048 80000040 // j pc - 0x8
00001f17 30 80001040 80000040 80000044 // auipc t5, 0x1
fc3f2023 00 00000000 80000044 80000048 // sw gp, -64(t5)
ff9ff06f 00 00000000 80000048 80000040 // j pc - 0x8
00001f17 30 80001040 80000040 80000044 // auipc t5, 0x1
fc3f2023 00 00000000 80000044 80000048 // sw gp, -64(t5)
ff9ff06f 00 00000000 80000048 80000040 // j pc - 0x8
00001f17 30 80001040 80000040 80000044 // auipc t5, 0x1
fc3f2023 00 00000000 80000044 80000048 // sw gp, -64(t5)
ff9ff06f 00 00000000 80000048 80000040 // j pc - 0x8
00001f17 30 80001040 80000040 80000044 // auipc t5, 0x1
fc3f2023 00 00000000 80000044 80000048 // sw gp, -64(t5)
ff9ff06f 00 00000000 80000048 80000040 // j pc - 0x8
00001f17 30 80001040 80000040 80000044 // auipc t5, 0x1
fc3f2023 00 00000000 80000044 80000048 // sw gp, -64(t5)
ff9ff06f 00 00000000 80000048 80000040 // j pc - 0x8
00001f17 30 80001040 80000040 80000044 // auipc t5, 0x1
fc3f2023 00 00000000 80000044 80000048 // sw gp, -64(t5)
ff9ff06f 00 00000000 80000048 80000040 // j pc - 0x8
00001f17 30 80001040 80000040 80000044 // auipc t5, 0x1
fc3f2023 00 00000000 80000044 80000048 // sw gp, -64(t5)
ff9ff06f 00 00000000 80000048 80000040 // j pc - 0x8
00001f17 30 80001040 80000040 80000044 // auipc t5, 0x1
fc3f2023 00 00000000 80000044 80000048 // sw gp, -64(t5)
ff9ff06f 00 00000000 80000048 80000040 // j pc - 0x8
00001f17 30 80001040 80000040 80000044 // auipc t5, 0x1
fc3f2023 00 00000000 80000044 80000048 // sw gp, -64(t5)
ff9ff06f 00 00000000 80000048 80000040 // j pc - 0x8
00001f17 30 80001040 80000040 80000044 // auipc t5, 0x1
fc3f2023 00 00000000 80000044 80000048 // sw gp, -64(t5)
ff9ff06f 00 00000000 80000048 80000040 // j pc - 0x8
00001f17 30 80001040 80000040 80000044 // auipc t5, 0x1
fc3f2023 00 00000000 80000044 80000048 // sw gp, -64(t5)
ff9ff06f 00 00000000 80000048 80000040 // j pc - 0x8
00001f17 30 80001040 80000040 80000044 // auipc t5, 0x1
fc3f2023 00 00000000 80000044 80000048 // sw gp, -64(t5)
ff9ff06f 00 00000000 80000048 80000040 // j pc - 0x8
00001f17 30 80001040 80000040 80000044 // auipc t5, 0x1
fc3f2023 00 00000000 80000044 80000048 // sw gp, -64(t5)
ff9ff06f 00 00000000 80000048 80000040 // j pc - 0x8
00001f17 30 80001040 80000040 80000044 // auipc t5, 0x1
fc3f2023 00 00000000 80000044 80000048 // sw gp, -64(t5)
ff9ff06f 00 00000000 80000048 80000040 // j pc - 0x8
00001f17 30 80001040 80000040 80000044 // auipc t5, 0x1
fc3f2023 00 00000000 80000044 80000048 // sw gp, -64(t5)
ff9ff06f 00 00000000 80000048 80000040 // j pc - 0x8
00001f17 30 80001040 80000040 80000044 // auipc t5, 0x1
fc3f2023 00 00000000 80000044 80000048 // sw gp, -64(t5)
ff9ff06f 00 00000000 80000048 80000040 // j pc - 0x8
00001f17 30 80001040 80000040 80000044 // auipc t5, 0x1
fc3f2023 00 00000000 80000044 80000048 // sw gp, -64(t5)
ff9ff06f 00 00000000 80000048 80000040 // j pc - 0x8
00001f17 30 80001040 80000040 80000044 // auipc t5, 0x1
fc3f2023 00 00000000 80000044 80000048 // sw gp, -64(t5)
ff9ff06f 00 00000000 80000048 80000040 // j pc - 0x8
00001f17 30 80001040 80000040 80000044 // auipc t5, 0x1
fc3f2023 00 00000000 80000044 80000048 // sw gp, -64(t5)
ff9ff06f 00 00000000 80000048 80000040 // j pc - 0x8
00001f17 30 80001040 80000040 80000044 // auipc t5, 0x1
fc3f2023 00 00000000 80000044 80000048 // sw gp, -64(t5)
ff9ff06f 00 00000000 80000048 80000040 // j pc - 0x8
00001f17 30 80001040 80000040 80000044 // auipc t5, 0x1
fc3f2023 00 00000000 80000044 80000048 // sw gp, -64(t5)
ff9ff06f 00 00000000 80000048 80000040 // j pc - 0x8
00001f17 30 80001040 80000040 80000044 // auipc t5, 0x1
fc3f2023 00 00000000 80000044 80000048 // sw gp, -64(t5)
ff9ff06f 00 00000000 80000048 80000040 // j pc - 0x8
00001f17 30 80001040 80000040 80000044 // auipc t5, 0x1
fc3f2023 00 00000000 80000044 80000048 // sw gp, -64(t5)
ff9ff06f 00 00000000 80000048 80000040 // j pc - 0x8
00001f17 30 80001040 80000040 80000044 // auipc t5, 0x1
fc3f2023 00 00000000 80000044 80000048 // sw gp, -64(t5)
ff9ff06f 00 00000000 80000048 80000040 // j pc - 0x8
00001f17 30 80001040 80000040 80000044 // auipc t5, 0x1
fc3f2023 00 00000000 80000044 80000048 // sw gp, -64(t5)
ff9ff06f 00 00000000 80000048 80000040 // j pc - 0x8
00001f17 30 80001040 80000040 80000044 // auipc t5, 0x1
fc3f2023 00 00000000 80000044 80000048 // sw gp, -64(t5)
ff9ff06f 00 00000000 80000048 80000040 // j pc - 0x8
00001f17 30 80001040 80000040 80000044 // auipc t5, 0x1
fc3f2023 00 00000000 80000044 80000048 // sw gp, -64(t5)
ff9ff06f 00 00000000 80000048 80000040 // j pc - 0x8
00001f17 30 80001040 80000040 80000044 // auipc t5, 0x1
fc3f2023 00 00000000 80000044 80000048 // sw gp, -64(t5)
ff9ff06f 00 00000000 80000048 80000040 // j pc - 0x8
00001f17 30 80001040 80000040 80000044 // auipc t5, 0x1
fc3f2023 00 00000000 80000044 80000048 // sw gp, -64(t5)
ff9ff06f 00 00000000 80000048 80000040 // j pc - 0x8
00001f17 30 80001040 80000040 80000044 // auipc t5, 0x1
fc3f2023 00 00000000 80000044 80000048 // sw gp, -64(t5)
ff9ff06f 00 00000000 80000048 80000040 // j pc - 0x8
00001f17 30 80001040 80000040 80000044 // auipc t5, 0x1
fc3f2023 00 00000000 80000044 80000048 // sw gp, -64(t5)
ff9ff06f 00 00000000 80000048 80000040 // j pc - 0x8
00001f17 30 80001040 80000040 80000044 // auipc t5, 0x1
fc3f2023 00 00000000 80000044 80000048 // sw gp, -64(t5)
ff9ff06f 00 00000000 80000048 80000040 // j pc - 0x8
00001f17 30 80001040 80000040 80000044 // auipc t5, 0x1
fc3f2023 00 00000000 80000044 80000048 // sw gp, -64(t5)
ff9ff06f 00 00000000 80000048 80000040 // j pc - 0x8
00001f17 30 80001040 80000040 80000044 // auipc t5, 0x1
fc3f2023 00 00000000 80000044 80000048 // sw gp, -64(t5)
ff9ff06f 00 00000000 80000048 80000040 // j pc - 0x8
00001f17 30 80001040 80000040 80000044 // auipc t5, 0x1
fc3f2023 00 00000000 80000044 80000048 // sw gp, -64(t5)
ff9ff06f 00 00000000 80000048 80000040 // j pc - 0x8
00001f17 30 80001040 80000040 80000044 // auipc t5, 0x1
fc3f2023 00 00000000 80000044 80000048 // sw gp, -64(t5)
ff9ff06f 00 00000000 80000048 80000040 // j pc - 0x8
00001f17 30 80001040 80000040 80000044 // auipc t5, 0x1
fc3f2023 00 00000000 80000044 80000048 // sw gp, -64(t5)
ff9ff06f 00 00000000 80000048 80000040 // j pc - 0x8
00001f17 30 80001040 80000040 80000044 // auipc t5, 0x1
fc3f2023 00 00000000 80000044 80000048 // sw gp, -64(t5)
ff9ff06f 00 00000000 80000048 80000040 // j pc - 0x8
00001f17 30 80001040 80000040 80000044 // auipc t5, 0x1
fc3f2023 00 00000000 80000044 80000048 // sw gp, -64(t5)
ff9ff06f 00 00000000 80000048 80000040 // j pc - 0x8
00001f17 30 80001040 80000040 80000044 // auipc t5, 0x1
fc3f2023 00 00000000 80000044 80000048 // sw gp, -64(t5)
ff9ff06f 00 00000000 80000048 80000040 // j pc - 0x8
00001f17 30 80001040 80000040 80000044 // auipc t5, 0x1
fc3f2023 00 00000000 80000044 80000048 // sw gp, -64(t5)
ff9ff06f 00 00000000 80000048 80000040 // j pc - 0x8
00001f17 30 80001040 80000040 80000044 // auipc t5, 0x1
fc3f2023 00 00000000 80000044 80000048 // sw gp, -64(t5)
ff9ff06f 00 00000000 80000048 80000040 // j pc - 0x8
00001f17 30 80001040 80000040 80000044 // auipc t5, 0x1
fc3f2023 00 00000000 80000044 80000048 // sw gp, -64(t5)
ff9ff06f 00 00000000 80000048 80000040 // j pc - 0x8
00001f17 30 80001040 80000040 80000044 // auipc t5, 0x1
fc3f2023 00 00000000 80000044 80000048 // sw gp, -64(t5)
ff9ff06f 00 00000000 80000048 80000040 // j pc - 0x8
00001f17 30 80001040 80000040 80000044 // auipc t5, 0x1
fc3f2023 00 00000000 80000044 80000048 // sw gp, -64(t5)
ff9ff06f 00 00000000 80000048 80000040 // j pc - 0x8
00001f17 30 80001040 80000040 80000044 // auipc t5, 0x1
fc3f2023 00 00000000 80000044 80000048 // sw gp, -64(t5)
ff9ff06f 00 00000000 80000048 80000040 // j pc - 0x8
00001f17 30 80001040 80000040 80000044 // auipc t5, 0x1
fc3f2023 00 00000000 80000044 80000048 // sw gp, -64(t5)
ff9ff06f 00 00000000 80000048 80000040 // j pc - 0x8
00001f17 30 80001040 80000040 80000044 // auipc t5, 0x1
fc3f2023 00 00000000 80000044 80000048 // sw gp, -64(t5)
ff9ff06f 00 00000000 80000048 80000040 // j pc - 0x8
00001f17 30 80001040 80000040 80000044 // auipc t5, 0x1
fc3f2023 00 00000000 80000044 80000048 // sw gp, -64(t5)
ff9ff06f 00 00000000 80000048 80000040 // j pc - 0x8
00001f17 30 80001040 80000040 80000044 // auipc t5, 0x1
fc3f2023 00 00000000 80000044 80000048 // sw gp, -64(t5)
ff9ff06f 00 00000000 80000048 80000040 // j pc - 0x8
00001f17 30 80001040 80000040 80000044 // auipc t5, 0x1
fc3f2023 00 00000000 80000044 80000048 // sw gp, -64(t5)
ff9ff06f 00 00000000 80000048 80000040 // j pc - 0x8
00001f17 30 80001040 80000040 80000044 // auipc t5, 0x1
fc3f2023 00 00000000 80000044 80000048 // sw gp, -64(t5)
ff9ff06f 00 00000000 80000048 80000040 // j pc - 0x8
00001f17 30 80001040 80000040 80000044 // auipc t5, 0x1
fc3f2023 00 00000000 80000044 80000048 // sw gp, -64(t5)
ff9ff06f 00 00000000 80000048 80000040 // j pc - 0x8
00001f17 30 80001040 80000040 80000044 // auipc t5, 0x1
fc3f2023 00 00000000 80000044 80000048 // sw gp, -64(t5)
ff9ff06f 00 00000000 80000048 80000040 // j pc - 0x8
00001f17 30 80001040 80000040 80000044 // auipc t5, 0x1
fc3f2023 00 00000000 80000044 80000048 // sw gp, -64(t5)
ff9ff06f 00 00000000 80000048 80000040 // j pc - 0x8
00001f17 30 80001040 80000040 80000044 // auipc t5, 0x1
fc3f2023 00 00000000 80000044 80000048 // sw gp, -64(t5)
ff9ff06f 00 00000000 80000048 80000040 // j pc - 0x8
00001f17 30 80001040 80000040 80000044 // auipc t5, 0x1
fc3f2023 00 00000000 80000044 80000048 // sw gp, -64(t5)
ff9ff06f 00 00000000 80000048 80000040 // j pc - 0x8
00001f17 30 80001040 80000040 80000044 // auipc t5, 0x1
fc3f2023 00 00000000 80000044 80000048 // sw gp, -64(t5)
ff9ff06f 00 00000000 80000048 80000040 // j pc - 0x8
00001f17 30 80001040 80000040 80000044 // auipc t5, 0x1
fc3f2023 00 00000000 80000044 80000048 // sw gp, -64(t5)
ff9ff06f 00 00000000 80000048 80000040 // j pc - 0x8
00001f17 30 80001040 80000040 80000044 // auipc t5, 0x1
fc3f2023 00 00000000 80000044 80000048 // sw gp, -64(t5)
ff9ff06f 00 00000000 80000048 80000040 // j pc - 0x8
00001f17 30 80001040 80000040 80000044 // auipc t5, 0x1
fc3f2023 00 00000000 80000044 80000048 // sw gp, -64(t5)
ff9ff06f 00 00000000 80000048 80000040 // j pc - 0x8
00001f17 30 80001040 80000040 80000044 // auipc t5, 0x1
fc3f2023 00 00000000 80000044 80000048 // sw gp, -64(t5)
ff9ff06f 00 00000000 80000048 80000040 // j pc - 0x8
00001f17 30 80001040 80000040 80000044 // auipc t5, 0x1
fc3f2023 00 00000000 80000044 80000048 // sw gp, -64(t5)
ff9ff06f 00 00000000 80000048 80000040 // j pc - 0x8
00001f17 30 80001040 80000040 80000044 // auipc t5, 0x1
fc3f2023 00 00000000 80000044 80000048 // sw gp, -64(t5)
ff9ff06f 00 00000000 80000048 80000040 // j pc - 0x8
00001f17 30 80001040 80000040 80000044 // auipc t5, 0x1
fc3f2023 00 00000000 80000044 80000048 // sw gp, -64(t5)
ff9ff06f 00 00000000 80000048 80000040 // j pc - 0x8
00001f17 30 80001040 80000040 80000044 // auipc t5, 0x1
fc3f2023 00 00000000 80000044 80000048 // sw gp, -64(t5)
ff9ff06f 00 00000000 80000048 80000040 // j pc - 0x8
00001f17 30 80001040 80000040 80000044 // auipc t5, 0x1
fc3f2023 00 00000000 80000044 80000048 // sw gp, -64(t5)
ff9ff06f 00 00000000 80000048 80000040 // j pc - 0x8
00001f17 30 80001040 80000040 80000044 // auipc t5, 0x1
fc3f2023 00 00000000 80000044 80000048 // sw gp, -64(t5)
ff9ff06f 00 00000000 80000048 80000040 // j pc - 0x8
00001f17 30 80001040 80000040 80000044 // auipc t5, 0x1
fc3f2023 00 00000000 80000044 80000048 // sw gp, -64(t5)
ff9ff06f 00 00000000 80000048 80000040 // j pc - 0x8
00001f17 30 80001040 80000040 80000044 // auipc t5, 0x1
fc3f2023 00 00000000 80000044 80000048 // sw gp, -64(t5)
ff9ff06f 00 00000000 80000048 80000040 // j pc - 0x8
00001f17 30 80001040 80000040 80000044 // auipc t5, 0x1
fc3f2023 00 00000000 80000044 80000048 // sw gp, -64(t5)
ff9ff06f 00 00000000 80000048 80000040 // j pc - 0x8
00001f17 30 80001040 80000040 80000044 // auipc t5, 0x1
fc3f2023 00 00000000 80000044 80000048 // sw gp, -64(t5)
ff9ff06f 00 00000000 80000048 80000040 // j pc - 0x8
00001f17 30 80001040 80000040 80000044 // auipc t5, 0x1
fc3f2023 00 00000000 80000044 80000048 // sw gp, -64(t5)
ff9ff06f 00 00000000 80000048 80000040 // j pc - 0x8
00001f17 30 80001040 80000040 80000044 // auipc t5, 0x1
fc3f2023 00 00000000 80000044 80000048 // sw gp, -64(t5)
ff9ff06f 00 00000000 80000048 80000040 // j pc - 0x8
00001f17 30 80001040 80000040 80000044 // auipc t5, 0x1
fc3f2023 00 00000000 80000044 80000048 // sw gp, -64(t5)
ff9ff06f 00 00000000 80000048 80000040 // j pc - 0x8
00001f17 30 80001040 80000040 80000044 // auipc t5, 0x1
fc3f2023 00 00000000 80000044 80000048 // sw gp, -64(t5)
ff9ff06f 00 00000000 80000048 80000040 // j pc - 0x8
00001f17 30 80001040 80000040 80000044 // auipc t5, 0x1
fc3f2023 00 00000000 80000044 80000048 // sw gp, -64(t5)
ff9ff06f 00 00000000 80000048 80000040 // j pc - 0x8
00001f17 30 80001040 80000040 80000044 // auipc t5, 0x1
fc3f2023 00 00000000 80000044 80000048 // sw gp, -64(t5)
ff9ff06f 00 00000000 80000048 80000040 // j pc - 0x8
00001f17 30 80001040 80000040 80000044 // auipc t5, 0x1
fc3f2023 00 00000000 80000044 80000048 // sw gp, -64(t5)
ff9ff06f 00 00000000 80000048 80000040 // j pc - 0x8
00001f17 30 80001040 80000040 80000044 // auipc t5, 0x1
fc3f2023 00 00000000 80000044 80000048 // sw gp, -64(t5)
ff9ff06f 00 00000000 80000048 80000040 // j pc - 0x8
00001f17 30 80001040 80000040 80000044 // auipc t5, 0x1
fc3f2023 00 00000000 80000044 80000048 // sw gp, -64(t5)
ff9ff06f 00 00000000 80000048 80000040 // j pc - 0x8
00001f17 30 80001040 80000040 80000044 // auipc t5, 0x1
fc3f2023 00 00000000 80000044 80000048 // sw gp, -64(t5)
ff9ff06f 00 00000000 80000048 80000040 // j pc - 0x8
00001f17 30 80001040 80000040 80000044 // auipc t5, 0x1
fc3f2023 00 00000000 80000044 80000048 // sw gp, -64(t5)
ff9ff06f 00 00000000 80000048 80000040 // j pc - 0x8
00001f17 30 80001040 80000040 80000044 // auipc t5, 0x1
fc3f2023 00 00000000 80000044 80000048 // sw gp, -64(t5)
ff9ff06f 00 00000000 80000048 80000040 // j pc - 0x8
00001f17 30 80001040 80000040 80000044 // auipc t5, 0x1
fc3f2023 00 00000000 80000044 80000048 // sw gp, -64(t5)
ff9ff06f 00 00000000 80000048 80000040 // j pc - 0x8
00001f17 30 80001040 80000040 80000044 // auipc t5, 0x1
fc3f2023 00 00000000 80000044 80000048 // sw gp, -64(t5)
ff9ff06f 00 00000000 80000048 80000040 // j pc - 0x8
00001f17 30 80001040 80000040 80000044 // auipc t5, 0x1
fc3f2023 00 00000000 80000044 80000048 // sw gp, -64(t5)
ff9ff06f 00 00000000 80000048 80000040 // j pc - 0x8
00001f17 30 80001040 80000040 80000044 // auipc t5, 0x1
fc3f2023 00 00000000 80000044 80000048 // sw gp, -64(t5)
ff9ff06f 00 00000000 80000048 80000040 // j pc - 0x8
00001f17 30 80001040 80000040 80000044 // auipc t5, 0x1
fc3f2023 00 00000000 80000044 80000048 // sw gp, -64(t5)
ff9ff06f 00 00000000 80000048 80000040 // j pc - 0x8
00001f17 30 80001040 80000040 80000044 // auipc t5, 0x1
fc3f2023 00 00000000 80000044 80000048 // sw gp, -64(t5)
ff9ff06f 00 00000000 80000048 80000040 // j pc - 0x8
00001f17 30 80001040 80000040 80000044 // auipc t5, 0x1
fc3f2023 00 00000000 80000044 80000048 // sw gp, -64(t5)
ff9ff06f 00 00000000 80000048 80000040 // j pc - 0x8
00001f17 30 80001040 80000040 80000044 // auipc t5, 0x1
fc3f2023 00 00000000 80000044 80000048 // sw gp, -64(t5)
ff9ff06f 00 00000000 80000048 80000040 // j pc - 0x8
00001f17 30 80001040 80000040 80000044 // auipc t5, 0x1
fc3f2023 00 00000000 80000044 80000048 // sw gp, -64(t5)
ff9ff06f 00 00000000 80000048 80000040 // j pc - 0x8
00001f17 30 80001040 80000040 80000044 // auipc t5, 0x1
fc3f2023 00 00000000 80000044 80000048 // sw gp, -64(t5)
ff9ff06f 00 00000000 80000048 80000040 // j pc - 0x8
00001f17 30 80001040 80000040 80000044 // auipc t5, 0x1
fc3f2023 00 00000000 80000044 80000048 // sw gp, -64(t5)
ff9ff06f 00 00000000 80000048 80000040 // j pc - 0x8
00001f17 30 80001040 80000040 80000044 // auipc t5, 0x1
fc3f2023 00 00000000 80000044 80000048 // sw gp, -64(t5)
ff9ff06f 00 00000000 80000048 80000040 // j pc - 0x8
00001f17 30 80001040 80000040 80000044 // auipc t5, 0x1
fc3f2023 00 00000000 80000044 80000048 // sw gp, -64(t5)
ff9ff06f 00 00000000 80000048 80000040 // j pc - 0x8
00001f17 30 80001040 80000040 80000044 // auipc t5, 0x1
fc3f2023 00 00000000 80000044 80000048 // sw gp, -64(t5)
ff9ff06f 00 00000000 80000048 80000040 // j pc - 0x8
00001f17 30 80001040 80000040 80000044 // auipc t5, 0x1
fc3f2023 00 00000000 80000044 80000048 // sw gp, -64(t5)
ff9ff06f 00 00000000 80000048 80000040 // j pc - 0x8
00001f17 30 80001040 80000040 80000044 // auipc t5, 0x1
fc3f2023 00 00000000 80000044 80000048 // sw gp, -64(t5)
ff9ff06f 00 00000000 80000048 80000040 // j pc - 0x8
00001f17 30 80001040 80000040 80000044 // auipc t5, 0x1
fc3f2023 00 00000000 80000044 80000048 // sw gp, -64(t5)
ff9ff06f 00 00000000 80000048 80000040 // j pc - 0x8
00001f17 30 80001040 80000040 80000044 // auipc t5, 0x1
fc3f2023 00 00000000 80000044 80000048 // sw gp, -64(t5)
ff9ff06f 00 00000000 80000048 80000040 // j pc - 0x8
00001f17 30 80001040 80000040 80000044 // auipc t5, 0x1
fc3f2023 00 00000000 80000044 80000048 // sw gp, -64(t5)
ff9ff06f 00 00000000 80000048 80000040 // j pc - 0x8
00001f17 30 80001040 80000040 80000044 // auipc t5, 0x1
fc3f2023 00 00000000 80000044 80000048 // sw gp, -64(t5)
ff9ff06f 00 00000000 80000048 80000040 // j pc - 0x8
00001f17 30 80001040 80000040 80000044 // auipc t5, 0x1
fc3f2023 00 00000000 80000044 80000048 // sw gp, -64(t5)
ff9ff06f 00 00000000 80000048 80000040 // j pc - 0x8
00001f17 30 80001040 80000040 80000044 // auipc t5, 0x1
fc3f2023 00 00000000 80000044 80000048 // sw gp, -64(t5)
ff9ff06f 00 00000000 80000048 80000040 // j pc - 0x8
00001f17 30 80001040 80000040 80000044 // auipc t5, 0x1
fc3f2023 00 00000000 80000044 80000048 // sw gp, -64(t5)
ff9ff06f 00 00000000 80000048 80000040 // j pc - 0x8
00001f17 30 80001040 80000040 80000044 // auipc t5, 0x1
fc3f2023 00 00000000 80000044 80000048 // sw gp, -64(t5)
ff9ff06f 00 00000000 80000048 80000040 // j pc - 0x8
00001f17 30 80001040 80000040 80000044 // auipc t5, 0x1
fc3f2023 00 00000000 80000044 80000048 // sw gp, -64(t5)
ff9ff06f 00 00000000 80000048 80000040 // j pc - 0x8
00001f17 30 80001040 80000040 80000044 // auipc t5, 0x1
fc3f2023 00 00000000 80000044 80000048 // sw gp, -64(t5)
ff9ff06f 00 00000000 80000048 80000040 // j pc - 0x8
00001f17 30 80001040 80000040 80000044 // auipc t5, 0x1
fc3f2023 00 00000000 80000044 80000048 // sw gp, -64(t5)
ff9ff06f 00 00000000 80000048 80000040 // j pc - 0x8
00001f17 30 80001040 80000040 80000044 // auipc t5, 0x1
fc3f2023 00 00000000 80000044 80000048 // sw gp, -64(t5)
ff9ff06f 00 00000000 80000048 80000040 // j pc - 0x8
00001f17 30 80001040 80000040 80000044 // auipc t5, 0x1
fc3f2023 00 00000000 80000044 80000048 // sw gp, -64(t5)
ff9ff06f 00 00000000 80000048 80000040 // j pc - 0x8
00001f17 30 80001040 80000040 80000044 // auipc t5, 0x1
fc3f2023 00 00000000 80000044 80000048 // sw gp, -64(t5)
ff9ff06f 00 00000000 80000048 80000040 // j pc - 0x8
00001f17 30 80001040 80000040 80000044 // auipc t5, 0x1
fc3f2023 00 00000000 80000044 80000048 // sw gp, -64(t5)
ff9ff06f 00 00000000 80000048 80000040 // j pc - 0x8
00001f17 30 80001040 80000040 80000044 // auipc t5, 0x1
fc3f2023 00 00000000 80000044 80000048 // sw gp, -64(t5)
ff9ff06f 00 00000000 80000048 80000040 // j pc - 0x8
00001f17 30 80001040 80000040 80000044 // auipc t5, 0x1
fc3f2023 00 00000000 80000044 80000048 // sw gp, -64(t5)
ff9ff06f 00 00000000 80000048 80000040 // j pc - 0x8
00001f17 30 80001040 80000040 80000044 // auipc t5, 0x1
fc3f2023 00 00000000 80000044 80000048 // sw gp, -64(t5)
ff9ff06f 00 00000000 80000048 80000040 // j pc - 0x8
00001f17 30 80001040 80000040 80000044 // auipc t5, 0x1
fc3f2023 00 00000000 80000044 80000048 // sw gp, -64(t5)
ff9ff06f 00 00000000 80000048 80000040 // j pc - 0x8
00001f17 30 80001040 80000040 80000044 // auipc t5, 0x1
fc3f2023 00 00000000 80000044 80000048 // sw gp, -64(t5)
ff9ff06f 00 00000000 80000048 80000040 // j pc - 0x8
00001f17 30 80001040 80000040 80000044 // auipc t5, 0x1
fc3f2023 00 00000000 80000044 80000048 // sw gp, -64(t5)
ff9ff06f 00 00000000 80000048 80000040 // j pc - 0x8
00001f17 30 80001040 80000040 80000044 // auipc t5, 0x1
fc3f2023 00 00000000 80000044 80000048 // sw gp, -64(t5)
ff9ff06f 00 00000000 80000048 80000040 // j pc - 0x8
00001f17 30 80001040 80000040 80000044 // auipc t5, 0x1
fc3f2023 00 00000000 80000044 80000048 // sw gp, -64(t5)
ff9ff06f 00 00000000 80000048 80000040 // j pc - 0x8
00001f17 30 80001040 80000040 80000044 // auipc t5, 0x1
fc3f2023 00 00000000 80000044 80000048 // sw gp, -64(t5)
ff9ff06f 00 00000000 80000048 80000040 // j pc - 0x8
00001f17 30 80001040 80000040 80000044 // auipc t5, 0x1
fc3f2023 00 00000000 80000044 80000048 // sw gp, -64(t5)
ff9ff06f 00 00000000 80000048 80000040 // j pc - 0x8
00001f17 30 80001040 80000040 80000044 // auipc t5, 0x1
fc3f2023 00 00000000 80000044 80000048 // sw gp, -64(t5)
ff9ff06f 00 00000000 80000048 80000040 // j pc - 0x8
00001f17 30 80001040 80000040 80000044 // auipc t5, 0x1
fc3f2023 00 00000000 80000044 80000048 // sw gp, -64(t5)
ff9ff06f 00 00000000 80000048 80000040 // j pc - 0x8
00001f17 30 80001040 80000040 80000044 // auipc t5, 0x1
fc3f2023 00 00000000 80000044 80000048 // sw gp, -64(t5)
ff9ff06f 00 00000000 80000048 80000040 // j pc - 0x8
00001f17 30 80001040 80000040 80000044 // auipc t5, 0x1
fc3f2023 00 00000000 80000044 80000048 // sw gp, -64(t5)
ff9ff06f 00 00000000 80000048 80000040 // j pc - 0x8
00001f17 30 80001040 80000040 80000044 // auipc t5, 0x1
fc3f2023 00 00000000 80000044 80000048 // sw gp, -64(t5)
ff9ff06f 00 00000000 80000048 80000040 // j pc - 0x8
00001f17 30 80001040 80000040 80000044 // auipc t5, 0x1
fc3f2023 00 00000000 80000044 80000048 // sw gp, -64(t5)
ff9ff06f 00 00000000 80000048 80000040 // j pc - 0x8
00001f17 30 80001040 80000040 80000044 // auipc t5, 0x1
fc3f2023 00 00000000 80000044 80000048 // sw gp, -64(t5)
ff9ff06f 00 00000000 80000048 80000040 // j pc - 0x8
00001f17 30 80001040 80000040 80000044 // auipc t5, 0x1
fc3f2023 00 00000000 80000044 80000048 // sw gp, -64(t5)
ff9ff06f 00 00000000 80000048 80000040 // j pc - 0x8
00001f17 30 80001040 80000040 80000044 // auipc t5, 0x1
fc3f2023 00 00000000 80000044 80000048 // sw gp, -64(t5)
ff9ff06f 00 00000000 80000048 80000040 // j pc - 0x8
00001f17 30 80001040 80000040 80000044 // auipc t5, 0x1
fc3f2023 00 00000000 80000044 80000048 // sw gp, -64(t5)
ff9ff06f 00 00000000 80000048 80000040 // j pc - 0x8
00001f17 30 80001040 80000040 80000044 // auipc t5, 0x1
fc3f2023 00 00000000 80000044 80000048 // sw gp, -64(t5)
ff9ff06f 00 00000000 80000048 80000040 // j pc - 0x8
00001f17 30 80001040 80000040 80000044 // auipc t5, 0x1
fc3f2023 00 00000000 80000044 80000048 // sw gp, -64(t5)
ff9ff06f 00 00000000 80000048 80000040 // j pc - 0x8
00001f17 30 80001040 80000040 80000044 // auipc t5, 0x1
fc3f2023 00 00000000 80000044 80000048 // sw gp, -64(t5)
ff9ff06f 00 00000000 80000048 80000040 // j pc - 0x8
00001f17 30 80001040 80000040 80000044 // auipc t5, 0x1
fc3f2023 00 00000000 80000044 80000048 // sw gp, -64(t5)
ff9ff06f 00 00000000 80000048 80000040 // j pc - 0x8
00001f17 30 80001040 80000040 80000044 // auipc t5, 0x1
fc3f2023 00 00000000 80000044 80000048 // sw gp, -64(t5)
ff9ff06f 00 00000000 80000048 80000040 // j pc - 0x8
00001f17 30 80001040 80000040 80000044 // auipc t5, 0x1
fc3f2023 00 00000000 80000044 80000048 // sw gp, -64(t5)
ff9ff06f 00 00000000 80000048 80000040 // j pc - 0x8
00001f17 30 80001040 80000040 80000044 // auipc t5, 0x1
fc3f2023 00 00000000 80000044 80000048 // sw gp, -64(t5)
ff9ff06f 00 00000000 80000048 80000040 // j pc - 0x8
00001f17 30 80001040 80000040 80000044 // auipc t5, 0x1
fc3f2023 00 00000000 80000044 80000048 // sw gp, -64(t5)
ff9ff06f 00 00000000 80000048 80000040 // j pc - 0x8
00001f17 30 80001040 80000040 80000044 // auipc t5, 0x1
fc3f2023 00 00000000 80000044 80000048 // sw gp, -64(t5)
ff9ff06f 00 00000000 80000048 80000040 // j pc - 0x8
00001f17 30 80001040 80000040 80000044 // auipc t5, 0x1
fc3f2023 00 00000000 80000044 80000048 // sw gp, -64(t5)
ff9ff06f 00 00000000 80000048 80000040 // j pc - 0x8
00001f17 30 80001040 80000040 80000044 // auipc t5, 0x1
fc3f2023 00 00000000 80000044 80000048 // sw gp, -64(t5)
ff9ff06f 00 00000000 80000048 80000040 // j pc - 0x8
00001f17 30 80001040 80000040 80000044 // auipc t5, 0x1
fc3f2023 00 00000000 80000044 80000048 // sw gp, -64(t5)
ff9ff06f 00 00000000 80000048 80000040 // j pc - 0x8
00001f17 30 80001040 80000040 80000044 // auipc t5, 0x1
fc3f2023 00 00000000 80000044 80000048 // sw gp, -64(t5)
ff9ff06f 00 00000000 80000048 80000040 // j pc - 0x8
00001f17 30 80001040 80000040 80000044 // auipc t5, 0x1
fc3f2023 00 00000000 80000044 80000048 // sw gp, -64(t5)
ff9ff06f 00 00000000 80000048 80000040 // j pc - 0x8
00001f17 30 80001040 80000040 80000044 // auipc t5, 0x1
fc3f2023 00 00000000 80000044 80000048 // sw gp, -64(t5)
ff9ff06f 00 00000000 80000048 80000040 // j pc - 0x8
00001f17 30 80001040 80000040 80000044 // auipc t5, 0x1
fc3f2023 00 00000000 80000044 80000048 // sw gp, -64(t5)
ff9ff06f 00 00000000 80000048 80000040 // j pc - 0x8
00001f17 30 80001040 80000040 80000044 // auipc t5, 0x1
fc3f2023 00 00000000 80000044 80000048 // sw gp, -64(t5)
ff9ff06f 00 00000000 80000048 80000040 // j pc - 0x8
00001f17 30 80001040 80000040 80000044 // auipc t5, 0x1
fc3f2023 00 00000000 80000044 80000048 // sw gp, -64(t5)
ff9ff06f 00 00000000 80000048 80000040 // j pc - 0x8
00001f17 30 80001040 80000040 80000044 // auipc t5, 0x1
fc3f2023 00 00000000 80000044 80000048 // sw gp, -64(t5)
ff9ff06f 00 00000000 80000048 80000040 // j pc - 0x8
00001f17 30 80001040 80000040 80000044 // auipc t5, 0x1
fc3f2023 00 00000000 80000044 80000048 // sw gp, -64(t5)
ff9ff06f 00 00000000 80000048 80000040 // j pc - 0x8
00001f17 30 80001040 80000040 80000044 // auipc t5, 0x1
fc3f2023 00 00000000 80000044 80000048 // sw gp, -64(t5)
ff9ff06f 00 00000000 80000048 80000040 // j pc - 0x8
00001f17 30 80001040 80000040 80000044 // auipc t5, 0x1
fc3f2023 00 00000000 80000044 80000048 // sw gp, -64(t5)
ff9ff06f 00 00000000 80000048 80000040 // j pc - 0x8
00001f17 30 80001040 80000040 80000044 // auipc t5, 0x1
fc3f2023 00 00000000 80000044 80000048 // sw gp, -64(t5)
ff9ff06f 00 00000000 80000048 80000040 // j pc - 0x8
00001f17 30 80001040 80000040 80000044 // auipc t5, 0x1
fc3f2023 00 00000000 80000044 80000048 // sw gp, -64(t5)
ff9ff06f 00 00000000 80000048 80000040 // j pc - 0x8
00001f17 30 80001040 80000040 80000044 // auipc t5, 0x1
fc3f2023 00 00000000 80000044 80000048 // sw gp, -64(t5)
ff9ff06f 00 00000000 80000048 80000040 // j pc - 0x8
00001f17 30 80001040 80000040 80000044 // auipc t5, 0x1
fc3f2023 00 00000000 80000044 80000048 // sw gp, -64(t5)
ff9ff06f 00 00000000 80000048 80000040 // j pc - 0x8
00001f17 30 80001040 80000040 80000044 // auipc t5, 0x1
fc3f2023 00 00000000 80000044 80000048 // sw gp, -64(t5)
ff9ff06f 00 00000000 80000048 80000040 // j pc - 0x8
00001f17 30 80001040 80000040 80000044 // auipc t5, 0x1
fc3f2023 00 00000000 80000044 80000048 // sw gp, -64(t5)
ff9ff06f 00 00000000 80000048 80000040 // j pc - 0x8
00001f17 30 80001040 80000040 80000044 // auipc t5, 0x1
fc3f2023 00 00000000 80000044 80000048 // sw gp, -64(t5)
ff9ff06f 00 00000000 80000048 80000040 // j pc - 0x8
00001f17 30 80001040 80000040 80000044 // auipc t5, 0x1
fc3f2023 00 00000000 80000044 80000048 // sw gp, -64(t5)
ff9ff06f 00 00000000 80000048 80000040 // j pc - 0x8
00001f17 30 80001040 80000040 80000044 // auipc t5, 0x1
fc3f2023 00 00000000 80000044 80000048 // sw gp, -64(t5)
ff9ff06f 00 00000000 80000048 80000040 // j pc - 0x8
00001f17 30 80001040 80000040 80000044 // auipc t5, 0x1
fc3f2023 00 00000000 80000044 80000048 // sw gp, -64(t5)
ff9ff06f 00 00000000 80000048 80000040 // j pc - 0x8
00001f17 30 80001040 80000040 80000044 // auipc t5, 0x1
fc3f2023 00 00000000 80000044 80000048 // sw gp, -64(t5)
ff9ff06f 00 00000000 80000048 80000040 // j pc - 0x8
00001f17 30 80001040 80000040 80000044 // auipc t5, 0x1
fc3f2023 00 00000000 80000044 80000048 // sw gp, -64(t5)
ff9ff06f 00 00000000 80000048 80000040 // j pc - 0x8
00001f17 30 80001040 80000040 80000044 // auipc t5, 0x1
fc3f2023 00 00000000 80000044 80000048 // sw gp, -64(t5)
ff9ff06f 00 00000000 80000048 80000040 // j pc - 0x8
00001f17 30 80001040 80000040 80000044 // auipc t5, 0x1
fc3f2023 00 00000000 80000044 80000048 // sw gp, -64(t5)
ff9ff06f 00 00000000 80000048 80000040 // j pc - 0x8
00001f17 30 80001040 80000040 80000044 // auipc t5, 0x1
fc3f2023 00 00000000 80000044 80000048 // sw gp, -64(t5)
ff9ff06f 00 00000000 80000048 80000040 // j pc - 0x8
00001f17 30 80001040 80000040 80000044 // auipc t5, 0x1
fc3f2023 00 00000000 80000044 80000048 // sw gp, -64(t5)
ff9ff06f 00 00000000 80000048 80000040 // j pc - 0x8
00001f17 30 80001040 80000040 80000044 // auipc t5, 0x1
fc3f2023 00 00000000 80000044 80000048 // sw gp, -64(t5)
ff9ff06f 00 00000000 80000048 80000040 // j pc - 0x8
00001f17 30 80001040 80000040 80000044 // auipc t5, 0x1
fc3f2023 00 00000000 80000044 80000048 // sw gp, -64(t5)
ff9ff06f 00 00000000 80000048 80000040 // j pc - 0x8
00001f17 30 80001040 80000040 80000044 // auipc t5, 0x1
fc3f2023 00 00000000 80000044 80000048 // sw gp, -64(t5)
ff9ff06f 00 00000000 80000048 80000040 // j pc - 0x8
00001f17 30 80001040 80000040 80000044 // auipc t5, 0x1
fc3f2023 00 00000000 80000044 80000048 // sw gp, -64(t5)
ff9ff06f 00 00000000 80000048 80000040 // j pc - 0x8
00001f17 30 80001040 80000040 80000044 // auipc t5, 0x1
fc3f2023 00 00000000 80000044 80000048 // sw gp, -64(t5)
ff9ff06f 00 00000000 80000048 80000040 // j pc - 0x8
00001f17 30 80001040 80000040 80000044 // auipc t5, 0x1
fc3f2023 00 00000000 80000044 80000048 // sw gp, -64(t5)
ff9ff06f 00 00000000 80000048 80000040 // j pc - 0x8
00001f17 30 80001040 80000040 80000044 // auipc t5, 0x1
fc3f2023 00 00000000 80000044 80000048 // sw gp, -64(t5)
ff9ff06f 00 00000000 80000048 80000040 // j pc - 0x8
00001f17 30 80001040 80000040 80000044 // auipc t5, 0x1
fc3f2023 00 00000000 80000044 80000048 // sw gp, -64(t5)
ff9ff06f 00 00000000 80000048 80000040 // j pc - 0x8
00001f17 30 80001040 80000040 80000044 // auipc t5, 0x1
fc3f2023 00 00000000 80000044 80000048 // sw gp, -64(t5)
ff9ff06f 00 00000000 80000048 80000040 // j pc - 0x8
00001f17 30 80001040 80000040 80000044 // auipc t5, 0x1
fc3f2023 00 00000000 80000044 80000048 // sw gp, -64(t5)
ff9ff06f 00 00000000 80000048 80000040 // j pc - 0x8
00001f17 30 80001040 80000040 80000044 // auipc t5, 0x1
fc3f2023 00 00000000 80000044 80000048 // sw gp, -64(t5)
ff9ff06f 00 00000000 80000048 80000040 // j pc - 0x8
00001f17 30 80001040 80000040 80000044 // auipc t5, 0x1
fc3f2023 00 00000000 80000044 80000048 // sw gp, -64(t5)
ff9ff06f 00 00000000 80000048 80000040 // j pc - 0x8
00001f17 30 80001040 80000040 80000044 // auipc t5, 0x1
fc3f2023 00 00000000 80000044 80000048 // sw gp, -64(t5)
ff9ff06f 00 00000000 80000048 80000040 // j pc - 0x8
00001f17 30 80001040 80000040 80000044 // auipc t5, 0x1
fc3f2023 00 00000000 80000044 80000048 // sw gp, -64(t5)
ff9ff06f 00 00000000 80000048 80000040 // j pc - 0x8
00001f17 30 80001040 80000040 80000044 // auipc t5, 0x1
fc3f2023 00 00000000 80000044 80000048 // sw gp, -64(t5)
ff9ff06f 00 00000000 80000048 80000040 // j pc - 0x8
00001f17 30 80001040 80000040 80000044 // auipc t5, 0x1
fc3f2023 00 00000000 80000044 80000048 // sw gp, -64(t5)
ff9ff06f 00 00000000 80000048 80000040 // j pc - 0x8
00001f17 30 80001040 80000040 80000044 // auipc t5, 0x1
fc3f2023 00 00000000 80000044 80000048 // sw gp, -64(t5)
ff9ff06f 00 00000000 80000048 80000040 // j pc - 0x8
00001f17 30 80001040 80000040 80000044 // auipc t5, 0x1
fc3f2023 00 00000000 80000044 80000048 // sw gp, -64(t5)
ff9ff06f 00 00000000 80000048 80000040 // j pc - 0x8
00001f17 30 80001040 80000040 80000044 // auipc t5, 0x1
fc3f2023 00 00000000 80000044 80000048 // sw gp, -64(t5)
ff9ff06f 00 00000000 80000048 80000040 // j pc - 0x8
00001f17 30 80001040 80000040 80000044 // auipc t5, 0x1
fc3f2023 00 00000000 80000044 80000048 // sw gp, -64(t5)
ff9ff06f 00 00000000 80000048 80000040 // j pc - 0x8
00001f17 30 80001040 80000040 80000044 // auipc t5, 0x1
fc3f2023 00 00000000 80000044 80000048 // sw gp, -64(t5)
ff9ff06f 00 00000000 80000048 80000040 // j pc - 0x8
00001f17 30 80001040 80000040 80000044 // auipc t5, 0x1
fc3f2023 00 00000000 80000044 80000048 // sw gp, -64(t5)
ff9ff06f 00 00000000 80000048 80000040 // j pc - 0x8
00001f17 30 80001040 80000040 80000044 // auipc t5, 0x1
fc3f2023 00 00000000 80000044 80000048 // sw gp, -64(t5)
ff9ff06f 00 00000000 80000048 80000040 // j pc - 0x8
00001f17 30 80001040 80000040 80000044 // auipc t5, 0x1
fc3f2023 00 00000000 80000044 80000048 // sw gp, -64(t5)
ff9ff06f 00 00000000 80000048 80000040 // j pc - 0x8
00001f17 30 80001040 80000040 80000044 // auipc t5, 0x1
fc3f2023 00 00000000 80000044 80000048 // sw gp, -64(t5)
ff9ff06f 00 00000000 80000048 80000040 // j pc - 0x8
00001f17 30 80001040 80000040 80000044 // auipc t5, 0x1
fc3f2023 00 00000000 80000044 80000048 // sw gp, -64(t5)
ff9ff06f 00 00000000 80000048 80000040 // j pc - 0x8
00001f17 30 80001040 80000040 80000044 // auipc t5, 0x1
fc3f2023 00 00000000 80000044 80000048 // sw gp, -64(t5)
ff9ff06f 00 00000000 80000048 80000040 // j pc - 0x8
00001f17 30 80001040 80000040 80000044 // auipc t5, 0x1
fc3f2023 00 00000000 80000044 80000048 // sw gp, -64(t5)
ff9ff06f 00 00000000 80000048 80000040 // j pc - 0x8
00001f17 30 80001040 80000040 80000044 // auipc t5, 0x1
fc3f2023 00 00000000 80000044 80000048 // sw gp, -64(t5)
ff9ff06f 00 00000000 80000048 80000040 // j pc - 0x8
00001f17 30 80001040 80000040 80000044 // auipc t5, 0x1
fc3f2023 00 00000000 80000044 80000048 // sw gp, -64(t5)
ff9ff06f 00 00000000 80000048 80000040 // j pc - 0x8
00001f17 30 80001040 80000040 80000044 // auipc t5, 0x1
fc3f2023 00 00000000 80000044 80000048 // sw gp, -64(t5)
ff9ff06f 00 00000000 80000048 80000040 // j pc - 0x8
00001f17 30 80001040 80000040 80000044 // auipc t5, 0x1
fc3f2023 00 00000000 80000044 80000048 // sw gp, -64(t5)
ff9ff06f 00 00000000 80000048 80000040 // j pc - 0x8
00001f17 30 80001040 80000040 80000044 // auipc t5, 0x1
fc3f2023 00 00000000 80000044 80000048 // sw gp, -64(t5)
ff9ff06f 00 00000000 80000048 80000040 // j pc - 0x8
00001f17 30 80001040 80000040 80000044 // auipc t5, 0x1
fc3f2023 00 00000000 80000044 80000048 // sw gp, -64(t5)
ff9ff06f 00 00000000 80000048 80000040 // j pc - 0x8
00001f17 30 80001040 80000040 80000044 // auipc t5, 0x1
fc3f2023 00 00000000 80000044 80000048 // sw gp, -64(t5)
ff9ff06f 00 00000000 80000048 80000040 // j pc - 0x8
00001f17 30 80001040 80000040 80000044 // auipc t5, 0x1
fc3f2023 00 00000000 80000044 80000048 // sw gp, -64(t5)
ff9ff06f 00 00000000 80000048 80000040 // j pc - 0x8
00001f17 30 80001040 80000040 80000044 // auipc t5, 0x1
fc3f2023 00 00000000 80000044 80000048 // sw gp, -64(t5)
ff9ff06f 00 00000000 80000048 80000040 // j pc - 0x8
00001f17 30 80001040 80000040 80000044 // auipc t5, 0x1
fc3f2023 00 00000000 80000044 80000048 // sw gp, -64(t5)
ff9ff06f 00 00000000 80000048 80000040 // j pc - 0x8
00001f17 30 80001040 80000040 80000044 // auipc t5, 0x1
fc3f2023 00 00000000 80000044 80000048 // sw gp, -64(t5)
ff9ff06f 00 00000000 80000048 80000040 // j pc - 0x8
00001f17 30 80001040 80000040 80000044 // auipc t5, 0x1
fc3f2023 00 00000000 80000044 80000048 // sw gp, -64(t5)
ff9ff06f 00 00000000 80000048 80000040 // j pc - 0x8
00001f17 30 80001040 80000040 80000044 // auipc t5, 0x1
fc3f2023 00 00000000 80000044 80000048 // sw gp, -64(t5)
ff9ff06f 00 00000000 80000048 80000040 // j pc - 0x8
00001f17 30 80001040 80000040 80000044 // auipc t5, 0x1
fc3f2023 00 00000000 80000044 80000048 // sw gp, -64(t5)
ff9ff06f 00 00000000 80000048 80000040 // j pc - 0x8
00001f17 30 80001040 80000040 80000044 // auipc t5, 0x1
fc3f2023 00 00000000 80000044 80000048 // sw gp, -64(t5)
ff9ff06f 00 00000000 80000048 80000040 // j pc - 0x8
00001f17 30 80001040 80000040 80000044 // auipc t5, 0x1
fc3f2023 00 00000000 80000044 80000048 // sw gp, -64(t5)
ff9ff06f 00 00000000 80000048 80000040 // j pc - 0x8
00001f17 30 80001040 80000040 80000044 // auipc t5, 0x1
fc3f2023 00 00000000 80000044 80000048 // sw gp, -64(t5)
ff9ff06f 00 00000000 80000048 80000040 // j pc - 0x8
00001f17 30 80001040 80000040 80000044 // auipc t5, 0x1
fc3f2023 00 00000000 80000044 80000048 // sw gp, -64(t5)
ff9ff06f 00 00000000 80000048 80000040 // j pc - 0x8
00001f17 30 80001040 80000040 80000044 // auipc t5, 0x1
fc3f2023 00 00000000 80000044 80000048 // sw gp, -64(t5)
ff9ff06f 00 00000000 80000048 80000040 // j pc - 0x8
00001f17 30 80001040 80000040 80000044 // auipc t5, 0x1
fc3f2023 00 00000000 80000044 80000048 // sw gp, -64(t5)
ff9ff06f 00 00000000 80000048 80000040 // j pc - 0x8
00001f17 30 80001040 80000040 80000044 // auipc t5, 0x1
fc3f2023 00 00000000 80000044 80000048 // sw gp, -64(t5)
ff9ff06f 00 00000000 80000048 80000040 // j pc - 0x8
00001f17 30 80001040 80000040 80000044 // auipc t5, 0x1
fc3f2023 00 00000000 80000044 80000048 // sw gp, -64(t5)
ff9ff06f 00 00000000 80000048 80000040 // j pc - 0x8
00001f17 30 80001040 80000040 80000044 // auipc t5, 0x1
fc3f2023 00 00000000 80000044 80000048 // sw gp, -64(t5)
ff9ff06f 00 00000000 80000048 80000040 // j pc - 0x8
00001f17 30 80001040 80000040 80000044 // auipc t5, 0x1
fc3f2023 00 00000000 80000044 80000048 // sw gp, -64(t5)
ff9ff06f 00 00000000 80000048 80000040 // j pc - 0x8
00001f17 30 80001040 80000040 80000044 // auipc t5, 0x1
fc3f2023 00 00000000 80000044 80000048 // sw gp, -64(t5)
ff9ff06f 00 00000000 80000048 80000040 // j pc - 0x8
00001f17 30 80001040 80000040 80000044 // auipc t5, 0x1
fc3f2023 00 00000000 80000044 80000048 // sw gp, -64(t5)
ff9ff06f 00 00000000 80000048 80000040 // j pc - 0x8
00001f17 30 80001040 80000040 80000044 // auipc t5, 0x1
fc3f2023 00 00000000 80000044 80000048 // sw gp, -64(t5)
ff9ff06f 00 00000000 80000048 80000040 // j pc - 0x8
00001f17 30 80001040 80000040 80000044 // auipc t5, 0x1
fc3f2023 00 00000000 80000044 80000048 // sw gp, -64(t5)
ff9ff06f 00 00000000 80000048 80000040 // j pc - 0x8
00001f17 30 80001040 80000040 80000044 // auipc t5, 0x1
fc3f2023 00 00000000 80000044 80000048 // sw gp, -64(t5)
ff9ff06f 00 00000000 80000048 80000040 // j pc - 0x8
00001f17 30 80001040 80000040 80000044 // auipc t5, 0x1
fc3f2023 00 00000000 80000044 80000048 // sw gp, -64(t5)
ff9ff06f 00 00000000 80000048 80000040 // j pc - 0x8
00001f17 30 80001040 80000040 80000044 // auipc t5, 0x1
fc3f2023 00 00000000 80000044 80000048 // sw gp, -64(t5)
ff9ff06f 00 00000000 80000048 80000040 // j pc - 0x8
00001f17 30 80001040 80000040 80000044 // auipc t5, 0x1
fc3f2023 00 00000000 80000044 80000048 // sw gp, -64(t5)
ff9ff06f 00 00000000 80000048 80000040 // j pc - 0x8
00001f17 30 80001040 80000040 80000044 // auipc t5, 0x1
fc3f2023 00 00000000 80000044 80000048 // sw gp, -64(t5)
ff9ff06f 00 00000000 80000048 80000040 // j pc - 0x8
00001f17 30 80001040 80000040 80000044 // auipc t5, 0x1
fc3f2023 00 00000000 80000044 80000048 // sw gp, -64(t5)
ff9ff06f 00 00000000 80000048 80000040 // j pc - 0x8
00001f17 30 80001040 80000040 80000044 // auipc t5, 0x1
fc3f2023 00 00000000 80000044 80000048 // sw gp, -64(t5)
ff9ff06f 00 00000000 80000048 80000040 // j pc - 0x8
00001f17 30 80001040 80000040 80000044 // auipc t5, 0x1
fc3f2023 00 00000000 80000044 80000048 // sw gp, -64(t5)
ff9ff06f 00 00000000 80000048 80000040 // j pc - 0x8
00001f17 30 80001040 80000040 80000044 // auipc t5, 0x1
fc3f2023 00 00000000 80000044 80000048 // sw gp, -64(t5)
ff9ff06f 00 00000000 80000048 80000040 // j pc - 0x8
00001f17 30 80001040 80000040 80000044 // auipc t5, 0x1
fc3f2023 00 00000000 80000044 80000048 // sw gp, -64(t5)
ff9ff06f 00 00000000 80000048 80000040 // j pc - 0x8
00001f17 30 80001040 80000040 80000044 // auipc t5, 0x1
fc3f2023 00 00000000 80000044 80000048 // sw gp, -64(t5)
ff9ff06f 00 00000000 80000048 80000040 // j pc - 0x8
00001f17 30 80001040 80000040 80000044 // auipc t5, 0x1
fc3f2023 00 00000000 80000044 80000048 // sw gp, -64(t5)
ff9ff06f 00 00000000 80000048 80000040 // j pc - 0x8
00001f17 30 80001040 80000040 80000044 // auipc t5, 0x1
fc3f2023 00 00000000 80000044 80000048 // sw gp, -64(t5)
ff9ff06f 00 00000000 80000048 80000040 // j pc - 0x8
00001f17 30 80001040 80000040 80000044 // auipc t5, 0x1
fc3f2023 00 00000000 80000044 80000048 // sw gp, -64(t5)
ff9ff06f 00 00000000 80000048 80000040 // j pc - 0x8
00001f17 30 80001040 80000040 80000044 // auipc t5, 0x1
fc3f2023 00 00000000 80000044 80000048 // sw gp, -64(t5)
ff9ff06f 00 00000000 80000048 80000040 // j pc - 0x8
00001f17 30 80001040 80000040 80000044 // auipc t5, 0x1
fc3f2023 00 00000000 80000044 80000048 // sw gp, -64(t5)
ff9ff06f 00 00000000 80000048 80000040 // j pc - 0x8
00001f17 30 80001040 80000040 80000044 // auipc t5, 0x1
fc3f2023 00 00000000 80000044 80000048 // sw gp, -64(t5)
ff9ff06f 00 00000000 80000048 80000040 // j pc - 0x8
00001f17 30 80001040 80000040 80000044 // auipc t5, 0x1
fc3f2023 00 00000000 80000044 80000048 // sw gp, -64(t5)
ff9ff06f 00 00000000 80000048 80000040 // j pc - 0x8
00001f17 30 80001040 80000040 80000044 // auipc t5, 0x1
fc3f2023 00 00000000 80000044 80000048 // sw gp, -64(t5)
ff9ff06f 00 00000000 80000048 80000040 // j pc - 0x8
00001f17 30 80001040 80000040 80000044 // auipc t5, 0x1
fc3f2023 00 00000000 80000044 80000048 // sw gp, -64(t5)
ff9ff06f 00 00000000 80000048 80000040 // j pc - 0x8
00001f17 30 80001040 80000040 80000044 // auipc t5, 0x1
fc3f2023 00 00000000 80000044 80000048 // sw gp, -64(t5)
ff9ff06f 00 00000000 80000048 80000040 // j pc - 0x8
00001f17 30 80001040 80000040 80000044 // auipc t5, 0x1
fc3f2023 00 00000000 80000044 80000048 // sw gp, -64(t5)
ff9ff06f 00 00000000 80000048 80000040 // j pc - 0x8
00001f17 30 80001040 80000040 80000044 // auipc t5, 0x1
fc3f2023 00 00000000 80000044 80000048 // sw gp, -64(t5)
ff9ff06f 00 00000000 80000048 80000040 // j pc - 0x8
00001f17 30 80001040 80000040 80000044 // auipc t5, 0x1
fc3f2023 00 00000000 80000044 80000048 // sw gp, -64(t5)
ff9ff06f 00 00000000 80000048 80000040 // j pc - 0x8
00001f17 30 80001040 80000040 80000044 // auipc t5, 0x1
fc3f2023 00 00000000 80000044 80000048 // sw gp, -64(t5)
ff9ff06f 00 00000000 80000048 80000040 // j pc - 0x8
00001f17 30 80001040 80000040 80000044 // auipc t5, 0x1
fc3f2023 00 00000000 80000044 80000048 // sw gp, -64(t5)
ff9ff06f 00 00000000 80000048 80000040 // j pc - 0x8
00001f17 30 80001040 80000040 80000044 // auipc t5, 0x1
fc3f2023 00 00000000 80000044 80000048 // sw gp, -64(t5)
ff9ff06f 00 00000000 80000048 80000040 // j pc - 0x8
00001f17 30 80001040 80000040 80000044 // auipc t5, 0x1
fc3f2023 00 00000000 80000044 80000048 // sw gp, -64(t5)
ff9ff06f 00 00000000 80000048 80000040 // j pc - 0x8
00001f17 30 80001040 80000040 80000044 // auipc t5, 0x1
fc3f2023 00 00000000 80000044 80000048 // sw gp, -64(t5)
ff9ff06f 00 00000000 80000048 80000040 // j pc - 0x8
00001f17 30 80001040 80000040 80000044 // auipc t5, 0x1
fc3f2023 00 00000000 80000044 80000048 // sw gp, -64(t5)
ff9ff06f 00 00000000 80000048 80000040 // j pc - 0x8
00001f17 30 80001040 80000040 80000044 // auipc t5, 0x1
fc3f2023 00 00000000 80000044 80000048 // sw gp, -64(t5)
ff9ff06f 00 00000000 80000048 80000040 // j pc - 0x8
00001f17 30 80001040 80000040 80000044 // auipc t5, 0x1
fc3f2023 00 00000000 80000044 80000048 // sw gp, -64(t5)
ff9ff06f 00 00000000 80000048 80000040 // j pc - 0x8
00001f17 30 80001040 80000040 80000044 // auipc t5, 0x1
fc3f2023 00 00000000 80000044 80000048 // sw gp, -64(t5)
ff9ff06f 00 00000000 80000048 80000040 // j pc - 0x8
00001f17 30 80001040 80000040 80000044 // auipc t5, 0x1
fc3f2023 00 00000000 80000044 80000048 // sw gp, -64(t5)
ff9ff06f 00 00000000 80000048 80000040 // j pc - 0x8
00001f17 30 80001040 80000040 80000044 // auipc t5, 0x1
fc3f2023 00 00000000 80000044 80000048 // sw gp, -64(t5)
ff9ff06f 00 00000000 80000048 80000040 // j pc - 0x8
00001f17 30 80001040 80000040 80000044 // auipc t5, 0x1
fc3f2023 00 00000000 80000044 80000048 // sw gp, -64(t5)
ff9ff06f 00 00000000 80000048 80000040 // j pc - 0x8
00001f17 30 80001040 80000040 80000044 // auipc t5, 0x1
fc3f2023 00 00000000 80000044 80000048 // sw gp, -64(t5)
ff9ff06f 00 00000000 80000048 80000040 // j pc - 0x8
00001f17 30 80001040 80000040 80000044 // auipc t5, 0x1
fc3f2023 00 00000000 80000044 80000048 // sw gp, -64(t5)
ff9ff06f 00 00000000 80000048 80000040 // j pc - 0x8
00001f17 30 80001040 80000040 80000044 // auipc t5, 0x1
fc3f2023 00 00000000 80000044 80000048 // sw gp, -64(t5)
ff9ff06f 00 00000000 80000048 80000040 // j pc - 0x8
00001f17 30 80001040 80000040 80000044 // auipc t5, 0x1
fc3f2023 00 00000000 80000044 80000048 // sw gp, -64(t5)
ff9ff06f 00 00000000 80000048 80000040 // j pc - 0x8
00001f17 30 80001040 80000040 80000044 // auipc t5, 0x1
fc3f2023 00 00000000 80000044 80000048 // sw gp, -64(t5)
ff9ff06f 00 00000000 80000048 80000040 // j pc - 0x8
00001f17 30 80001040 80000040 80000044 // auipc t5, 0x1
fc3f2023 00 00000000 80000044 80000048 // sw gp, -64(t5)
ff9ff06f 00 00000000 80000048 80000040 // j pc - 0x8
00001f17 30 80001040 80000040 80000044 // auipc t5, 0x1
fc3f2023 00 00000000 80000044 80000048 // sw gp, -64(t5)
ff9ff06f 00 00000000 80000048 80000040 // j pc - 0x8
00001f17 30 80001040 80000040 80000044 // auipc t5, 0x1
fc3f2023 00 00000000 80000044 80000048 // sw gp, -64(t5)
ff9ff06f 00 00000000 80000048 80000040 // j pc - 0x8
00001f17 30 80001040 80000040 80000044 // auipc t5, 0x1
fc3f2023 00 00000000 80000044 80000048 // sw gp, -64(t5)
ff9ff06f 00 00000000 80000048 80000040 // j pc - 0x8
00001f17 30 80001040 80000040 80000044 // auipc t5, 0x1
fc3f2023 00 00000000 80000044 80000048 // sw gp, -64(t5)
ff9ff06f 00 00000000 80000048 80000040 // j pc - 0x8
00001f17 30 80001040 80000040 80000044 // auipc t5, 0x1
fc3f2023 00 00000000 80000044 80000048 // sw gp, -64(t5)
ff9ff06f 00 00000000 80000048 80000040 // j pc - 0x8
00001f17 30 80001040 80000040 80000044 // auipc t5, 0x1
fc3f2023 00 00000000 80000044 80000048 // sw gp, -64(t5)
ff9ff06f 00 00000000 80000048 80000040 // j pc - 0x8
00001f17 30 80001040 80000040 80000044 // auipc t5, 0x1
fc3f2023 00 00000000 80000044 80000048 // sw gp, -64(t5)
ff9ff06f 00 00000000 80000048 80000040 // j pc - 0x8
00001f17 30 80001040 80000040 80000044 // auipc t5, 0x1
fc3f2023 00 00000000 80000044 80000048 // sw gp, -64(t5)
ff9ff06f 00 00000000 80000048 80000040 // j pc - 0x8
00001f17 30 80001040 80000040 80000044 // auipc t5, 0x1
fc3f2023 00 00000000 80000044 80000048 // sw gp, -64(t5)
ff9ff06f 00 00000000 80000048 80000040 // j pc - 0x8
00001f17 30 80001040 80000040 80000044 // auipc t5, 0x1
fc3f2023 00 00000000 80000044 80000048 // sw gp, -64(t5)
ff9ff06f 00 00000000 80000048 80000040 // j pc - 0x8
00001f17 30 80001040 80000040 80000044 // auipc t5, 0x1
fc3f2023 00 00000000 80000044 80000048 // sw gp, -64(t5)
ff9ff06f 00 00000000 80000048 80000040 // j pc - 0x8
00001f17 30 80001040 80000040 80000044 // auipc t5, 0x1
fc3f2023 00 00000000 80000044 80000048 // sw gp, -64(t5)
ff9ff06f 00 00000000 80000048 80000040 // j pc - 0x8
00001f17 30 80001040 80000040 80000044 // auipc t5, 0x1
fc3f2023 00 00000000 80000044 80000048 // sw gp, -64(t5)
ff9ff06f 00 00000000 80000048 80000040 // j pc - 0x8
00001f17 30 80001040 80000040 80000044 // auipc t5, 0x1
fc3f2023 00 00000000 80000044 80000048 // sw gp, -64(t5)
ff9ff06f 00 00000000 80000048 80000040 // j pc - 0x8
00001f17 30 80001040 80000040 80000044 // auipc t5, 0x1
fc3f2023 00 00000000 80000044 80000048 // sw gp, -64(t5)
ff9ff06f 00 00000000 80000048 80000040 // j pc - 0x8
00001f17 30 80001040 80000040 80000044 // auipc t5, 0x1
fc3f2023 00 00000000 80000044 80000048 // sw gp, -64(t5)
ff9ff06f 00 00000000 80000048 80000040 // j pc - 0x8
00001f17 30 80001040 80000040 80000044 // auipc t5, 0x1
fc3f2023 00 00000000 80000044 80000048 // sw gp, -64(t5)
ff9ff06f 00 00000000 80000048 80000040 // j pc - 0x8
00001f17 30 80001040 80000040 80000044 // auipc t5, 0x1
fc3f2023 00 00000000 80000044 80000048 // sw gp, -64(t5)
ff9ff06f 00 00000000 80000048 80000040 // j pc - 0x8
00001f17 30 80001040 80000040 80000044 // auipc t5, 0x1
fc3f2023 00 00000000 80000044 80000048 // sw gp, -64(t5)
ff9ff06f 00 00000000 80000048 80000040 // j pc - 0x8
00001f17 30 80001040 80000040 80000044 // auipc t5, 0x1
fc3f2023 00 00000000 80000044 80000048 // sw gp, -64(t5)
ff9ff06f 00 00000000 80000048 80000040 // j pc - 0x8
00001f17 30 80001040 80000040 80000044 // auipc t5, 0x1
fc3f2023 00 00000000 80000044 80000048 // sw gp, -64(t5)
ff9ff06f 00 00000000 80000048 80000040 // j pc - 0x8
00001f17 30 80001040 80000040 80000044 // auipc t5, 0x1
fc3f2023 00 00000000 80000044 80000048 // sw gp, -64(t5)
ff9ff06f 00 00000000 80000048 80000040 // j pc - 0x8
00001f17 30 80001040 80000040 80000044 // auipc t5, 0x1
fc3f2023 00 00000000 80000044 80000048 // sw gp, -64(t5)
ff9ff06f 00 00000000 80000048 80000040 // j pc - 0x8
00001f17 30 80001040 80000040 80000044 // auipc t5, 0x1
fc3f2023 00 00000000 80000044 80000048 // sw gp, -64(t5)
ff9ff06f 00 00000000 80000048 80000040 // j pc - 0x8
00001f17 30 80001040 80000040 80000044 // auipc t5, 0x1
fc3f2023 00 00000000 80000044 80000048 // sw gp, -64(t5)
ff9ff06f 00 00000000 80000048 80000040 // j pc - 0x8
00001f17 30 80001040 80000040 80000044 // auipc t5, 0x1
fc3f2023 00 00000000 80000044 80000048 // sw gp, -64(t5)
ff9ff06f 00 00000000 80000048 80000040 // j pc - 0x8
00001f17 30 80001040 80000040 80000044 // auipc t5, 0x1
fc3f2023 00 00000000 80000044 80000048 // sw gp, -64(t5)
ff9ff06f 00 00000000 80000048 80000040 // j pc - 0x8
00001f17 30 80001040 80000040 80000044 // auipc t5, 0x1
fc3f2023 00 00000000 80000044 80000048 // sw gp, -64(t5)
ff9ff06f 00 00000000 80000048 80000040 // j pc - 0x8
00001f17 30 80001040 80000040 80000044 // auipc t5, 0x1
fc3f2023 00 00000000 80000044 80000048 // sw gp, -64(t5)
ff9ff06f 00 00000000 80000048 80000040 // j pc - 0x8
00001f17 30 80001040 80000040 80000044 // auipc t5, 0x1
fc3f2023 00 00000000 80000044 80000048 // sw gp, -64(t5)
ff9ff06f 00 00000000 80000048 80000040 // j pc - 0x8
00001f17 30 80001040 80000040 80000044 // auipc t5, 0x1
fc3f2023 00 00000000 80000044 80000048 // sw gp, -64(t5)
ff9ff06f 00 00000000 80000048 80000040 // j pc - 0x8
00001f17 30 80001040 80000040 80000044 // auipc t5, 0x1
fc3f2023 00 00000000 80000044 80000048 // sw gp, -64(t5)
ff9ff06f 00 00000000 80000048 80000040 // j pc - 0x8
00001f17 30 80001040 80000040 80000044 // auipc t5, 0x1
fc3f2023 00 00000000 80000044 80000048 // sw gp, -64(t5)
ff9ff06f 00 00000000 80000048 80000040 // j pc - 0x8
00001f17 30 80001040 80000040 80000044 // auipc t5, 0x1
fc3f2023 00 00000000 80000044 80000048 // sw gp, -64(t5)
ff9ff06f 00 00000000 80000048 80000040 // j pc - 0x8
00001f17 30 80001040 80000040 80000044 // auipc t5, 0x1
fc3f2023 00 00000000 80000044 80000048 // sw gp, -64(t5)
ff9ff06f 00 00000000 80000048 80000040 // j pc - 0x8
00001f17 30 80001040 80000040 80000044 // auipc t5, 0x1
fc3f2023 00 00000000 80000044 80000048 // sw gp, -64(t5)
ff9ff06f 00 00000000 80000048 80000040 // j pc - 0x8
00001f17 30 80001040 80000040 80000044 // auipc t5, 0x1
fc3f2023 00 00000000 80000044 80000048 // sw gp, -64(t5)
ff9ff06f 00 00000000 80000048 80000040 // j pc - 0x8
00001f17 30 80001040 80000040 80000044 // auipc t5, 0x1
fc3f2023 00 00000000 80000044 80000048 // sw gp, -64(t5)
ff9ff06f 00 00000000 80000048 80000040 // j pc - 0x8
00001f17 30 80001040 80000040 80000044 // auipc t5, 0x1
fc3f2023 00 00000000 80000044 80000048 // sw gp, -64(t5)
ff9ff06f 00 00000000 80000048 80000040 // j pc - 0x8
00001f17 30 80001040 80000040 80000044 // auipc t5, 0x1
fc3f2023 00 00000000 80000044 80000048 // sw gp, -64(t5)
ff9ff06f 00 00000000 80000048 80000040 // j pc - 0x8
00001f17 30 80001040 80000040 80000044 // auipc t5, 0x1
fc3f2023 00 00000000 80000044 80000048 // sw gp, -64(t5)
ff9ff06f 00 00000000 80000048 80000040 // j pc - 0x8
00001f17 30 80001040 80000040 80000044 // auipc t5, 0x1
fc3f2023 00 00000000 80000044 80000048 // sw gp, -64(t5)
ff9ff06f 00 00000000 80000048 80000040 // j pc - 0x8
00001f17 30 80001040 80000040 80000044 // auipc t5, 0x1
fc3f2023 00 00000000 80000044 80000048 // sw gp, -64(t5)
ff9ff06f 00 00000000 80000048 80000040 // j pc - 0x8
00001f17 30 80001040 80000040 80000044 // auipc t5, 0x1
fc3f2023 00 00000000 80000044 80000048 // sw gp, -64(t5)
ff9ff06f 00 00000000 80000048 80000040 // j pc - 0x8
00001f17 30 80001040 80000040 80000044 // auipc t5, 0x1
fc3f2023 00 00000000 80000044 80000048 // sw gp, -64(t5)
ff9ff06f 00 00000000 80000048 80000040 // j pc - 0x8
00001f17 30 80001040 80000040 80000044 // auipc t5, 0x1
fc3f2023 00 00000000 80000044 80000048 // sw gp, -64(t5)
ff9ff06f 00 00000000 80000048 80000040 // j pc - 0x8
00001f17 30 80001040 80000040 80000044 // auipc t5, 0x1
fc3f2023 00 00000000 80000044 80000048 // sw gp, -64(t5)
ff9ff06f 00 00000000 80000048 80000040 // j pc - 0x8
00001f17 30 80001040 80000040 80000044 // auipc t5, 0x1
fc3f2023 00 00000000 80000044 80000048 // sw gp, -64(t5)
ff9ff06f 00 00000000 80000048 80000040 // j pc - 0x8
00001f17 30 80001040 80000040 80000044 // auipc t5, 0x1
fc3f2023 00 00000000 80000044 80000048 // sw gp, -64(t5)
ff9ff06f 00 00000000 80000048 80000040 // j pc - 0x8
00001f17 30 80001040 80000040 80000044 // auipc t5, 0x1
fc3f2023 00 00000000 80000044 80000048 // sw gp, -64(t5)
ff9ff06f 00 00000000 80000048 80000040 // j pc - 0x8
00001f17 30 80001040 80000040 80000044 // auipc t5, 0x1
fc3f2023 00 00000000 80000044 80000048 // sw gp, -64(t5)
ff9ff06f 00 00000000 80000048 80000040 // j pc - 0x8
00001f17 30 80001040 80000040 80000044 // auipc t5, 0x1
fc3f2023 00 00000000 80000044 80000048 // sw gp, -64(t5)
ff9ff06f 00 00000000 80000048 80000040 // j pc - 0x8
00001f17 30 80001040 80000040 80000044 // auipc t5, 0x1
fc3f2023 00 00000000 80000044 80000048 // sw gp, -64(t5)
ff9ff06f 00 00000000 80000048 80000040 // j pc - 0x8
00001f17 30 80001040 80000040 80000044 // auipc t5, 0x1
fc3f2023 00 00000000 80000044 80000048 // sw gp, -64(t5)
ff9ff06f 00 00000000 80000048 80000040 // j pc - 0x8
00001f17 30 80001040 80000040 80000044 // auipc t5, 0x1
fc3f2023 00 00000000 80000044 80000048 // sw gp, -64(t5)
ff9ff06f 00 00000000 80000048 80000040 // j pc - 0x8
00001f17 30 80001040 80000040 80000044 // auipc t5, 0x1
fc3f2023 00 00000000 80000044 80000048 // sw gp, -64(t5)
ff9ff06f 00 00000000 80000048 80000040 // j pc - 0x8
00001f17 30 80001040 80000040 80000044 // auipc t5, 0x1
fc3f2023 00 00000000 80000044 80000048 // sw gp, -64(t5)
ff9ff06f 00 00000000 80000048 80000040 // j pc - 0x8
00001f17 30 80001040 80000040 80000044 // auipc t5, 0x1
fc3f2023 00 00000000 80000044 80000048 // sw gp, -64(t5)
ff9ff06f 00 00000000 80000048 80000040 // j pc - 0x8
00001f17 30 80001040 80000040 80000044 // auipc t5, 0x1
fc3f2023 00 00000000 80000044 80000048 // sw gp, -64(t5)
ff9ff06f 00 00000000 80000048 80000040 // j pc - 0x8
00001f17 30 80001040 80000040 80000044 // auipc t5, 0x1
fc3f2023 00 00000000 80000044 80000048 // sw gp, -64(t5)
ff9ff06f 00 00000000 80000048 80000040 // j pc - 0x8
00001f17 30 80001040 80000040 80000044 // auipc t5, 0x1
fc3f2023 00 00000000 80000044 80000048 // sw gp, -64(t5)
ff9ff06f 00 00000000 80000048 80000040 // j pc - 0x8
00001f17 30 80001040 80000040 80000044 // auipc t5, 0x1
fc3f2023 00 00000000 80000044 80000048 // sw gp, -64(t5)
ff9ff06f 00 00000000 80000048 80000040 // j pc - 0x8
00001f17 30 80001040 80000040 80000044 // auipc t5, 0x1
fc3f2023 00 00000000 80000044 80000048 // sw gp, -64(t5)
ff9ff06f 00 00000000 80000048 80000040 // j pc - 0x8
00001f17 30 80001040 80000040 80000044 // auipc t5, 0x1
fc3f2023 00 00000000 80000044 80000048 // sw gp, -64(t5)
ff9ff06f 00 00000000 80000048 80000040 // j pc - 0x8
00001f17 30 80001040 80000040 80000044 // auipc t5, 0x1
fc3f2023 00 00000000 80000044 80000048 // sw gp, -64(t5)
ff9ff06f 00 00000000 80000048 80000040 // j pc - 0x8
00001f17 30 80001040 80000040 80000044 // auipc t5, 0x1
fc3f2023 00 00000000 80000044 80000048 // sw gp, -64(t5)
ff9ff06f 00 00000000 80000048 80000040 // j pc - 0x8
00001f17 30 80001040 80000040 80000044 // auipc t5, 0x1
fc3f2023 00 00000000 80000044 80000048 // sw gp, -64(t5)
ff9ff06f 00 00000000 80000048 80000040 // j pc - 0x8
00001f17 30 80001040 80000040 80000044 // auipc t5, 0x1
fc3f2023 00 00000000 80000044 80000048 // sw gp, -64(t5)
ff9ff06f 00 00000000 80000048 80000040 // j pc - 0x8
00001f17 30 80001040 80000040 80000044 // auipc t5, 0x1
fc3f2023 00 00000000 80000044 80000048 // sw gp, -64(t5)
ff9ff06f 00 00000000 80000048 80000040 // j pc - 0x8
00001f17 30 80001040 80000040 80000044 // auipc t5, 0x1
fc3f2023 00 00000000 80000044 80000048 // sw gp, -64(t5)
ff9ff06f 00 00000000 80000048 80000040 // j pc - 0x8
00001f17 30 80001040 80000040 80000044 // auipc t5, 0x1
fc3f2023 00 00000000 80000044 80000048 // sw gp, -64(t5)
ff9ff06f 00 00000000 80000048 80000040 // j pc - 0x8
00001f17 30 80001040 80000040 80000044 // auipc t5, 0x1
fc3f2023 00 00000000 80000044 80000048 // sw gp, -64(t5)
ff9ff06f 00 00000000 80000048 80000040 // j pc - 0x8
00001f17 30 80001040 80000040 80000044 // auipc t5, 0x1
fc3f2023 00 00000000 80000044 80000048 // sw gp, -64(t5)
ff9ff06f 00 00000000 80000048 80000040 // j pc - 0x8
00001f17 30 80001040 80000040 80000044 // auipc t5, 0x1
fc3f2023 00 00000000 80000044 80000048 // sw gp, -64(t5)
ff9ff06f 00 00000000 80000048 80000040 // j pc - 0x8
00001f17 30 80001040 80000040 80000044 // auipc t5, 0x1
fc3f2023 00 00000000 80000044 80000048 // sw gp, -64(t5)
ff9ff06f 00 00000000 80000048 80000040 // j pc - 0x8
00001f17 30 80001040 80000040 80000044 // auipc t5, 0x1
fc3f2023 00 00000000 80000044 80000048 // sw gp, -64(t5)
ff9ff06f 00 00000000 80000048 80000040 // j pc - 0x8
00001f17 30 80001040 80000040 80000044 // auipc t5, 0x1
fc3f2023 00 00000000 80000044 80000048 // sw gp, -64(t5)
ff9ff06f 00 00000000 80000048 80000040 // j pc - 0x8
00001f17 30 80001040 80000040 80000044 // auipc t5, 0x1
fc3f2023 00 00000000 80000044 80000048 // sw gp, -64(t5)
ff9ff06f 00 00000000 80000048 80000040 // j pc - 0x8
00001f17 30 80001040 80000040 80000044 // auipc t5, 0x1
fc3f2023 00 00000000 80000044 80000048 // sw gp, -64(t5)
ff9ff06f 00 00000000 80000048 80000040 // j pc - 0x8
00001f17 30 80001040 80000040 80000044 // auipc t5, 0x1
fc3f2023 00 00000000 80000044 80000048 // sw gp, -64(t5)
ff9ff06f 00 00000000 80000048 80000040 // j pc - 0x8
00001f17 30 80001040 80000040 80000044 // auipc t5, 0x1
fc3f2023 00 00000000 80000044 80000048 // sw gp, -64(t5)
ff9ff06f 00 00000000 80000048 80000040 // j pc - 0x8
00001f17 30 80001040 80000040 80000044 // auipc t5, 0x1
fc3f2023 00 00000000 80000044 80000048 // sw gp, -64(t5)
ff9ff06f 00 00000000 80000048 80000040 // j pc - 0x8
00001f17 30 80001040 80000040 80000044 // auipc t5, 0x1
fc3f2023 00 00000000 80000044 80000048 // sw gp, -64(t5)
ff9ff06f 00 00000000 80000048 80000040 // j pc - 0x8
00001f17 30 80001040 80000040 80000044 // auipc t5, 0x1
fc3f2023 00 00000000 80000044 80000048 // sw gp, -64(t5)
ff9ff06f 00 00000000 80000048 80000040 // j pc - 0x8
00001f17 30 80001040 80000040 80000044 // auipc t5, 0x1
fc3f2023 00 00000000 80000044 80000048 // sw gp, -64(t5)
ff9ff06f 00 00000000 80000048 80000040 // j pc - 0x8
00001f17 30 80001040 80000040 80000044 // auipc t5, 0x1
fc3f2023 00 00000000 80000044 80000048 // sw gp, -64(t5)
ff9ff06f 00 00000000 80000048 80000040 // j pc - 0x8
00001f17 30 80001040 80000040 80000044 // auipc t5, 0x1
fc3f2023 00 00000000 80000044 80000048 // sw gp, -64(t5)
ff9ff06f 00 00000000 80000048 80000040 // j pc - 0x8
00001f17 30 80001040 80000040 80000044 // auipc t5, 0x1
fc3f2023 00 00000000 80000044 80000048 // sw gp, -64(t5)
ff9ff06f 00 00000000 80000048 80000040 // j pc - 0x8
00001f17 30 80001040 80000040 80000044 // auipc t5, 0x1
fc3f2023 00 00000000 80000044 80000048 // sw gp, -64(t5)
ff9ff06f 00 00000000 80000048 80000040 // j pc - 0x8
00001f17 30 80001040 80000040 80000044 // auipc t5, 0x1
fc3f2023 00 00000000 80000044 80000048 // sw gp, -64(t5)
ff9ff06f 00 00000000 80000048 80000040 // j pc - 0x8
00001f17 30 80001040 80000040 80000044 // auipc t5, 0x1
fc3f2023 00 00000000 80000044 80000048 // sw gp, -64(t5)
ff9ff06f 00 00000000 80000048 80000040 // j pc - 0x8
00001f17 30 80001040 80000040 80000044 // auipc t5, 0x1
fc3f2023 00 00000000 80000044 80000048 // sw gp, -64(t5)
ff9ff06f 00 00000000 80000048 80000040 // j pc - 0x8
00001f17 30 80001040 80000040 80000044 // auipc t5, 0x1
fc3f2023 00 00000000 80000044 80000048 // sw gp, -64(t5)
ff9ff06f 00 00000000 80000048 80000040 // j pc - 0x8
00001f17 30 80001040 80000040 80000044 // auipc t5, 0x1
fc3f2023 00 00000000 80000044 80000048 // sw gp, -64(t5)
ff9ff06f 00 00000000 80000048 80000040 // j pc - 0x8
00001f17 30 80001040 80000040 80000044 // auipc t5, 0x1
fc3f2023 00 00000000 80000044 80000048 // sw gp, -64(t5)
ff9ff06f 00 00000000 80000048 80000040 // j pc - 0x8
00001f17 30 80001040 80000040 80000044 // auipc t5, 0x1
fc3f2023 00 00000000 80000044 80000048 // sw gp, -64(t5)
ff9ff06f 00 00000000 80000048 80000040 // j pc - 0x8
00001f17 30 80001040 80000040 80000044 // auipc t5, 0x1
fc3f2023 00 00000000 80000044 80000048 // sw gp, -64(t5)
ff9ff06f 00 00000000 80000048 80000040 // j pc - 0x8
00001f17 30 80001040 80000040 80000044 // auipc t5, 0x1
fc3f2023 00 00000000 80000044 80000048 // sw gp, -64(t5)
ff9ff06f 00 00000000 80000048 80000040 // j pc - 0x8
00001f17 30 80001040 80000040 80000044 // auipc t5, 0x1
fc3f2023 00 00000000 80000044 80000048 // sw gp, -64(t5)
ff9ff06f 00 00000000 80000048 80000040 // j pc - 0x8
00001f17 30 80001040 80000040 80000044 // auipc t5, 0x1
fc3f2023 00 00000000 80000044 80000048 // sw gp, -64(t5)
ff9ff06f 00 00000000 80000048 80000040 // j pc - 0x8
00001f17 30 80001040 80000040 80000044 // auipc t5, 0x1
fc3f2023 00 00000000 80000044 80000048 // sw gp, -64(t5)
ff9ff06f 00 00000000 80000048 80000040 // j pc - 0x8
00001f17 30 80001040 80000040 80000044 // auipc t5, 0x1
fc3f2023 00 00000000 80000044 80000048 // sw gp, -64(t5)
ff9ff06f 00 00000000 80000048 80000040 // j pc - 0x8
00001f17 30 80001040 80000040 80000044 // auipc t5, 0x1
fc3f2023 00 00000000 80000044 80000048 // sw gp, -64(t5)
ff9ff06f 00 00000000 80000048 80000040 // j pc - 0x8
00001f17 30 80001040 80000040 80000044 // auipc t5, 0x1
fc3f2023 00 00000000 80000044 80000048 // sw gp, -64(t5)
ff9ff06f 00 00000000 80000048 80000040 // j pc - 0x8
00001f17 30 80001040 80000040 80000044 // auipc t5, 0x1
fc3f2023 00 00000000 80000044 80000048 // sw gp, -64(t5)
ff9ff06f 00 00000000 80000048 80000040 // j pc - 0x8
00001f17 30 80001040 80000040 80000044 // auipc t5, 0x1
fc3f2023 00 00000000 80000044 80000048 // sw gp, -64(t5)
ff9ff06f 00 00000000 80000048 80000040 // j pc - 0x8
00001f17 30 80001040 80000040 80000044 // auipc t5, 0x1
fc3f2023 00 00000000 80000044 80000048 // sw gp, -64(t5)
ff9ff06f 00 00000000 80000048 80000040 // j pc - 0x8
00001f17 30 80001040 80000040 80000044 // auipc t5, 0x1
fc3f2023 00 00000000 80000044 80000048 // sw gp, -64(t5)
ff9ff06f 00 00000000 80000048 80000040 // j pc - 0x8
00001f17 30 80001040 80000040 80000044 // auipc t5, 0x1
fc3f2023 00 00000000 80000044 80000048 // sw gp, -64(t5)
ff9ff06f 00 00000000 80000048 80000040 // j pc - 0x8
00001f17 30 80001040 80000040 80000044 // auipc t5, 0x1
fc3f2023 00 00000000 80000044 80000048 // sw gp, -64(t5)
ff9ff06f 00 00000000 80000048 80000040 // j pc - 0x8
00001f17 30 80001040 80000040 80000044 // auipc t5, 0x1
fc3f2023 00 00000000 80000044 80000048 // sw gp, -64(t5)
ff9ff06f 00 00000000 80000048 80000040 // j pc - 0x8
00001f17 30 80001040 80000040 80000044 // auipc t5, 0x1
fc3f2023 00 00000000 80000044 80000048 // sw gp, -64(t5)
ff9ff06f 00 00000000 80000048 80000040 // j pc - 0x8
00001f17 30 80001040 80000040 80000044 // auipc t5, 0x1
fc3f2023 00 00000000 80000044 80000048 // sw gp, -64(t5)
ff9ff06f 00 00000000 80000048 80000040 // j pc - 0x8
00001f17 30 80001040 80000040 80000044 // auipc t5, 0x1
fc3f2023 00 00000000 80000044 80000048 // sw gp, -64(t5)
ff9ff06f 00 00000000 80000048 80000040 // j pc - 0x8
00001f17 30 80001040 80000040 80000044 // auipc t5, 0x1
fc3f2023 00 00000000 80000044 80000048 // sw gp, -64(t5)
ff9ff06f 00 00000000 80000048 80000040 // j pc - 0x8
00001f17 30 80001040 80000040 80000044 // auipc t5, 0x1
fc3f2023 00 00000000 80000044 80000048 // sw gp, -64(t5)
ff9ff06f 00 00000000 80000048 80000040 // j pc - 0x8
00001f17 30 80001040 80000040 80000044 // auipc t5, 0x1
fc3f2023 00 00000000 80000044 80000048 // sw gp, -64(t5)
ff9ff06f 00 00000000 80000048 80000040 // j pc - 0x8
00001f17 30 80001040 80000040 80000044 // auipc t5, 0x1
fc3f2023 00 00000000 80000044 80000048 // sw gp, -64(t5)
ff9ff06f 00 00000000 80000048 80000040 // j pc - 0x8
00001f17 30 80001040 80000040 80000044 // auipc t5, 0x1
fc3f2023 00 00000000 80000044 80000048 // sw gp, -64(t5)
ff9ff06f 00 00000000 80000048 80000040 // j pc - 0x8
00001f17 30 80001040 80000040 80000044 // auipc t5, 0x1
fc3f2023 00 00000000 80000044 80000048 // sw gp, -64(t5)
ff9ff06f 00 00000000 80000048 80000040 // j pc - 0x8
00001f17 30 80001040 80000040 80000044 // auipc t5, 0x1
fc3f2023 00 00000000 80000044 80000048 // sw gp, -64(t5)
ff9ff06f 00 00000000 80000048 80000040 // j pc - 0x8
00001f17 30 80001040 80000040 80000044 // auipc t5, 0x1
fc3f2023 00 00000000 80000044 80000048 // sw gp, -64(t5)
ff9ff06f 00 00000000 80000048 80000040 // j pc - 0x8
00001f17 30 80001040 80000040 80000044 // auipc t5, 0x1
fc3f2023 00 00000000 80000044 80000048 // sw gp, -64(t5)
ff9ff06f 00 00000000 80000048 80000040 // j pc - 0x8
00001f17 30 80001040 80000040 80000044 // auipc t5, 0x1
fc3f2023 00 00000000 80000044 80000048 // sw gp, -64(t5)
ff9ff06f 00 00000000 80000048 80000040 // j pc - 0x8
00001f17 30 80001040 80000040 80000044 // auipc t5, 0x1
fc3f2023 00 00000000 80000044 80000048 // sw gp, -64(t5)
ff9ff06f 00 00000000 80000048 80000040 // j pc - 0x8
00001f17 30 80001040 80000040 80000044 // auipc t5, 0x1
fc3f2023 00 00000000 80000044 80000048 // sw gp, -64(t5)
ff9ff06f 00 00000000 80000048 80000040 // j pc - 0x8
00001f17 30 80001040 80000040 80000044 // auipc t5, 0x1
fc3f2023 00 00000000 80000044 80000048 // sw gp, -64(t5)
ff9ff06f 00 00000000 80000048 80000040 // j pc - 0x8
00001f17 30 80001040 80000040 80000044 // auipc t5, 0x1
fc3f2023 00 00000000 80000044 80000048 // sw gp, -64(t5)
ff9ff06f 00 00000000 80000048 80000040 // j pc - 0x8
00001f17 30 80001040 80000040 80000044 // auipc t5, 0x1
fc3f2023 00 00000000 80000044 80000048 // sw gp, -64(t5)
ff9ff06f 00 00000000 80000048 80000040 // j pc - 0x8
00001f17 30 80001040 80000040 80000044 // auipc t5, 0x1
fc3f2023 00 00000000 80000044 80000048 // sw gp, -64(t5)
ff9ff06f 00 00000000 80000048 80000040 // j pc - 0x8
00001f17 30 80001040 80000040 80000044 // auipc t5, 0x1
fc3f2023 00 00000000 80000044 80000048 // sw gp, -64(t5)
ff9ff06f 00 00000000 80000048 80000040 // j pc - 0x8
00001f17 30 80001040 80000040 80000044 // auipc t5, 0x1
fc3f2023 00 00000000 80000044 80000048 // sw gp, -64(t5)
ff9ff06f 00 00000000 80000048 80000040 // j pc - 0x8
00001f17 30 80001040 80000040 80000044 // auipc t5, 0x1
fc3f2023 00 00000000 80000044 80000048 // sw gp, -64(t5)
ff9ff06f 00 00000000 80000048 80000040 // j pc - 0x8
00001f17 30 80001040 80000040 80000044 // auipc t5, 0x1
fc3f2023 00 00000000 80000044 80000048 // sw gp, -64(t5)
ff9ff06f 00 00000000 80000048 80000040 // j pc - 0x8
00001f17 30 80001040 80000040 80000044 // auipc t5, 0x1
fc3f2023 00 00000000 80000044 80000048 // sw gp, -64(t5)
ff9ff06f 00 00000000 80000048 80000040 // j pc - 0x8
00001f17 30 80001040 80000040 80000044 // auipc t5, 0x1
fc3f2023 00 00000000 80000044 80000048 // sw gp, -64(t5)
ff9ff06f 00 00000000 80000048 80000040 // j pc - 0x8
00001f17 30 80001040 80000040 80000044 // auipc t5, 0x1
fc3f2023 00 00000000 80000044 80000048 // sw gp, -64(t5)
ff9ff06f 00 00000000 80000048 80000040 // j pc - 0x8
00001f17 30 80001040 80000040 80000044 // auipc t5, 0x1
fc3f2023 00 00000000 80000044 80000048 // sw gp, -64(t5)
ff9ff06f 00 00000000 80000048 80000040 // j pc - 0x8
00001f17 30 80001040 80000040 80000044 // auipc t5, 0x1
fc3f2023 00 00000000 80000044 80000048 // sw gp, -64(t5)
ff9ff06f 00 00000000 80000048 80000040 // j pc - 0x8
00001f17 30 80001040 80000040 80000044 // auipc t5, 0x1
fc3f2023 00 00000000 80000044 80000048 // sw gp, -64(t5)
ff9ff06f 00 00000000 80000048 80000040 // j pc - 0x8
00001f17 30 80001040 80000040 80000044 // auipc t5, 0x1
fc3f2023 00 00000000 80000044 80000048 // sw gp, -64(t5)
ff9ff06f 00 00000000 80000048 80000040 // j pc - 0x8
00001f17 30 80001040 80000040 80000044 // auipc t5, 0x1
fc3f2023 00 00000000 80000044 80000048 // sw gp, -64(t5)
ff9ff06f 00 00000000 80000048 80000040 // j pc - 0x8
00001f17 30 80001040 80000040 80000044 // auipc t5, 0x1
fc3f2023 00 00000000 80000044 80000048 // sw gp, -64(t5)
ff9ff06f 00 00000000 80000048 80000040 // j pc - 0x8
00001f17 30 80001040 80000040 80000044 // auipc t5, 0x1
fc3f2023 00 00000000 80000044 80000048 // sw gp, -64(t5)
ff9ff06f 00 00000000 80000048 80000040 // j pc - 0x8
00001f17 30 80001040 80000040 80000044 // auipc t5, 0x1
fc3f2023 00 00000000 80000044 80000048 // sw gp, -64(t5)
ff9ff06f 00 00000000 80000048 80000040 // j pc - 0x8
00001f17 30 80001040 80000040 80000044 // auipc t5, 0x1
fc3f2023 00 00000000 80000044 80000048 // sw gp, -64(t5)
ff9ff06f 00 00000000 80000048 80000040 // j pc - 0x8
00001f17 30 80001040 80000040 80000044 // auipc t5, 0x1
fc3f2023 00 00000000 80000044 80000048 // sw gp, -64(t5)
ff9ff06f 00 00000000 80000048 80000040 // j pc - 0x8
00001f17 30 80001040 80000040 80000044 // auipc t5, 0x1
fc3f2023 00 00000000 80000044 80000048 // sw gp, -64(t5)
ff9ff06f 00 00000000 80000048 80000040 // j pc - 0x8
00001f17 30 80001040 80000040 80000044 // auipc t5, 0x1
fc3f2023 00 00000000 80000044 80000048 // sw gp, -64(t5)
ff9ff06f 00 00000000 80000048 80000040 // j pc - 0x8
00001f17 30 80001040 80000040 80000044 // auipc t5, 0x1
fc3f2023 00 00000000 80000044 80000048 // sw gp, -64(t5)
ff9ff06f 00 00000000 80000048 80000040 // j pc - 0x8
00001f17 30 80001040 80000040 80000044 // auipc t5, 0x1
fc3f2023 00 00000000 80000044 80000048 // sw gp, -64(t5)
ff9ff06f 00 00000000 80000048 80000040 // j pc - 0x8
00001f17 30 80001040 80000040 80000044 // auipc t5, 0x1
fc3f2023 00 00000000 80000044 80000048 // sw gp, -64(t5)
ff9ff06f 00 00000000 80000048 80000040 // j pc - 0x8
00001f17 30 80001040 80000040 80000044 // auipc t5, 0x1
fc3f2023 00 00000000 80000044 80000048 // sw gp, -64(t5)
ff9ff06f 00 00000000 80000048 80000040 // j pc - 0x8
00001f17 30 80001040 80000040 80000044 // auipc t5, 0x1
fc3f2023 00 00000000 80000044 80000048 // sw gp, -64(t5)
ff9ff06f 00 00000000 80000048 80000040 // j pc - 0x8
00001f17 30 80001040 80000040 80000044 // auipc t5, 0x1
fc3f2023 00 00000000 80000044 80000048 // sw gp, -64(t5)
ff9ff06f 00 00000000 80000048 80000040 // j pc - 0x8
00001f17 30 80001040 80000040 80000044 // auipc t5, 0x1
fc3f2023 00 00000000 80000044 80000048 // sw gp, -64(t5)
ff9ff06f 00 00000000 80000048 80000040 // j pc - 0x8
00001f17 30 80001040 80000040 80000044 // auipc t5, 0x1
fc3f2023 00 00000000 80000044 80000048 // sw gp, -64(t5)
ff9ff06f 00 00000000 80000048 80000040 // j pc - 0x8
00001f17 30 80001040 80000040 80000044 // auipc t5, 0x1
fc3f2023 00 00000000 80000044 80000048 // sw gp, -64(t5)
ff9ff06f 00 00000000 80000048 80000040 // j pc - 0x8
00001f17 30 80001040 80000040 80000044 // auipc t5, 0x1
fc3f2023 00 00000000 80000044 80000048 // sw gp, -64(t5)
ff9ff06f 00 00000000 80000048 80000040 // j pc - 0x8
00001f17 30 80001040 80000040 80000044 // auipc t5, 0x1
fc3f2023 00 00000000 80000044 80000048 // sw gp, -64(t5)
ff9ff06f 00 00000000 80000048 80000040 // j pc - 0x8
00001f17 30 80001040 80000040 80000044 // auipc t5, 0x1
fc3f2023 00 00000000 80000044 80000048 // sw gp, -64(t5)
ff9ff06f 00 00000000 80000048 80000040 // j pc - 0x8
00001f17 30 80001040 80000040 80000044 // auipc t5, 0x1
fc3f2023 00 00000000 80000044 80000048 // sw gp, -64(t5)
ff9ff06f 00 00000000 80000048 80000040 // j pc - 0x8
00001f17 30 80001040 80000040 80000044 // auipc t5, 0x1
fc3f2023 00 00000000 80000044 80000048 // sw gp, -64(t5)
ff9ff06f 00 00000000 80000048 80000040 // j pc - 0x8
00001f17 30 80001040 80000040 80000044 // auipc t5, 0x1
fc3f2023 00 00000000 80000044 80000048 // sw gp, -64(t5)
ff9ff06f 00 00000000 80000048 80000040 // j pc - 0x8
00001f17 30 80001040 80000040 80000044 // auipc t5, 0x1
fc3f2023 00 00000000 80000044 80000048 // sw gp, -64(t5)
ff9ff06f 00 00000000 80000048 80000040 // j pc - 0x8
00001f17 30 80001040 80000040 80000044 // auipc t5, 0x1
fc3f2023 00 00000000 80000044 80000048 // sw gp, -64(t5)
ff9ff06f 00 00000000 80000048 80000040 // j pc - 0x8
00001f17 30 80001040 80000040 80000044 // auipc t5, 0x1
fc3f2023 00 00000000 80000044 80000048 // sw gp, -64(t5)
ff9ff06f 00 00000000 80000048 80000040 // j pc - 0x8
00001f17 30 80001040 80000040 80000044 // auipc t5, 0x1
fc3f2023 00 00000000 80000044 80000048 // sw gp, -64(t5)
ff9ff06f 00 00000000 80000048 80000040 // j pc - 0x8
00001f17 30 80001040 80000040 80000044 // auipc t5, 0x1
fc3f2023 00 00000000 80000044 80000048 // sw gp, -64(t5)
ff9ff06f 00 00000000 80000048 80000040 // j pc - 0x8
00001f17 30 80001040 80000040 80000044 // auipc t5, 0x1
fc3f2023 00 00000000 80000044 80000048 // sw gp, -64(t5)
ff9ff06f 00 00000000 80000048 80000040 // j pc - 0x8
00001f17 30 80001040 80000040 80000044 // auipc t5, 0x1
fc3f2023 00 00000000 80000044 80000048 // sw gp, -64(t5)
ff9ff06f 00 00000000 80000048 80000040 // j pc - 0x8
00001f17 30 80001040 80000040 80000044 // auipc t5, 0x1
fc3f2023 00 00000000 80000044 80000048 // sw gp, -64(t5)
ff9ff06f 00 00000000 80000048 80000040 // j pc - 0x8
00001f17 30 80001040 80000040 80000044 // auipc t5, 0x1
fc3f2023 00 00000000 80000044 80000048 // sw gp, -64(t5)
ff9ff06f 00 00000000 80000048 80000040 // j pc - 0x8
00001f17 30 80001040 80000040 80000044 // auipc t5, 0x1
fc3f2023 00 00000000 80000044 80000048 // sw gp, -64(t5)
ff9ff06f 00 00000000 80000048 80000040 // j pc - 0x8
00001f17 30 80001040 80000040 80000044 // auipc t5, 0x1
fc3f2023 00 00000000 80000044 80000048 // sw gp, -64(t5)
ff9ff06f 00 00000000 80000048 80000040 // j pc - 0x8
00001f17 30 80001040 80000040 80000044 // auipc t5, 0x1
fc3f2023 00 00000000 80000044 80000048 // sw gp, -64(t5)
ff9ff06f 00 00000000 80000048 80000040 // j pc - 0x8
00001f17 30 80001040 80000040 80000044 // auipc t5, 0x1
fc3f2023 00 00000000 80000044 80000048 // sw gp, -64(t5)
ff9ff06f 00 00000000 80000048 80000040 // j pc - 0x8
00001f17 30 80001040 80000040 80000044 // auipc t5, 0x1
fc3f2023 00 00000000 80000044 80000048 // sw gp, -64(t5)
ff9ff06f 00 00000000 80000048 80000040 // j pc - 0x8
00001f17 30 80001040 80000040 80000044 // auipc t5, 0x1
fc3f2023 00 00000000 80000044 80000048 // sw gp, -64(t5)
ff9ff06f 00 00000000 80000048 80000040 // j pc - 0x8
00001f17 30 80001040 80000040 80000044 // auipc t5, 0x1
fc3f2023 00 00000000 80000044 80000048 // sw gp, -64(t5)
ff9ff06f 00 00000000 80000048 80000040 // j pc - 0x8
00001f17 30 80001040 80000040 80000044 // auipc t5, 0x1
fc3f2023 00 00000000 80000044 80000048 // sw gp, -64(t5)
ff9ff06f 00 00000000 80000048 80000040 // j pc - 0x8
00001f17 30 80001040 80000040 80000044 // auipc t5, 0x1
fc3f2023 00 00000000 80000044 80000048 // sw gp, -64(t5)
ff9ff06f 00 00000000 80000048 80000040 // j pc - 0x8
00001f17 30 80001040 80000040 80000044 // auipc t5, 0x1
fc3f2023 00 00000000 80000044 80000048 // sw gp, -64(t5)
ff9ff06f 00 00000000 80000048 80000040 // j pc - 0x8
00001f17 30 80001040 80000040 80000044 // auipc t5, 0x1
fc3f2023 00 00000000 80000044 80000048 // sw gp, -64(t5)
ff9ff06f 00 00000000 80000048 80000040 // j pc - 0x8
00001f17 30 80001040 80000040 80000044 // auipc t5, 0x1
fc3f2023 00 00000000 80000044 80000048 // sw gp, -64(t5)
ff9ff06f 00 00000000 80000048 80000040 // j pc - 0x8
00001f17 30 80001040 80000040 80000044 // auipc t5, 0x1
fc3f2023 00 00000000 80000044 80000048 // sw gp, -64(t5)
ff9ff06f 00 00000000 80000048 80000040 // j pc - 0x8
00001f17 30 80001040 80000040 80000044 // auipc t5, 0x1
fc3f2023 00 00000000 80000044 80000048 // sw gp, -64(t5)
ff9ff06f 00 00000000 80000048 80000040 // j pc - 0x8
00001f17 30 80001040 80000040 80000044 // auipc t5, 0x1
fc3f2023 00 00000000 80000044 80000048 // sw gp, -64(t5)
ff9ff06f 00 00000000 80000048 80000040 // j pc - 0x8
00001f17 30 80001040 80000040 80000044 // auipc t5, 0x1
fc3f2023 00 00000000 80000044 80000048 // sw gp, -64(t5)
ff9ff06f 00 00000000 80000048 80000040 // j pc - 0x8
00001f17 30 80001040 80000040 80000044 // auipc t5, 0x1
fc3f2023 00 00000000 80000044 80000048 // sw gp, -64(t5)
ff9ff06f 00 00000000 80000048 80000040 // j pc - 0x8
00001f17 30 80001040 80000040 80000044 // auipc t5, 0x1
fc3f2023 00 00000000 80000044 80000048 // sw gp, -64(t5)
ff9ff06f 00 00000000 80000048 80000040 // j pc - 0x8
00001f17 30 80001040 80000040 80000044 // auipc t5, 0x1
fc3f2023 00 00000000 80000044 80000048 // sw gp, -64(t5)
ff9ff06f 00 00000000 80000048 80000040 // j pc - 0x8
00001f17 30 80001040 80000040 80000044 // auipc t5, 0x1
fc3f2023 00 00000000 80000044 80000048 // sw gp, -64(t5)
ff9ff06f 00 00000000 80000048 80000040 // j pc - 0x8
00001f17 30 80001040 80000040 80000044 // auipc t5, 0x1
fc3f2023 00 00000000 80000044 80000048 // sw gp, -64(t5)
ff9ff06f 00 00000000 80000048 80000040 // j pc - 0x8
00001f17 30 80001040 80000040 80000044 // auipc t5, 0x1
fc3f2023 00 00000000 80000044 80000048 // sw gp, -64(t5)
ff9ff06f 00 00000000 80000048 80000040 // j pc - 0x8
00001f17 30 80001040 80000040 80000044 // auipc t5, 0x1
fc3f2023 00 00000000 80000044 80000048 // sw gp, -64(t5)
ff9ff06f 00 00000000 80000048 80000040 // j pc - 0x8
00001f17 30 80001040 80000040 80000044 // auipc t5, 0x1
fc3f2023 00 00000000 80000044 80000048 // sw gp, -64(t5)
ff9ff06f 00 00000000 80000048 80000040 // j pc - 0x8
00001f17 30 80001040 80000040 80000044 // auipc t5, 0x1
fc3f2023 00 00000000 80000044 80000048 // sw gp, -64(t5)
ff9ff06f 00 00000000 80000048 80000040 // j pc - 0x8
00001f17 30 80001040 80000040 80000044 // auipc t5, 0x1
fc3f2023 00 00000000 80000044 80000048 // sw gp, -64(t5)
ff9ff06f 00 00000000 80000048 80000040 // j pc - 0x8
00001f17 30 80001040 80000040 80000044 // auipc t5, 0x1
fc3f2023 00 00000000 80000044 80000048 // sw gp, -64(t5)
ff9ff06f 00 00000000 80000048 80000040 // j pc - 0x8
00001f17 30 80001040 80000040 80000044 // auipc t5, 0x1
fc3f2023 00 00000000 80000044 80000048 // sw gp, -64(t5)
ff9ff06f 00 00000000 80000048 80000040 // j pc - 0x8
00001f17 30 80001040 80000040 80000044 // auipc t5, 0x1
fc3f2023 00 00000000 80000044 80000048 // sw gp, -64(t5)
ff9ff06f 00 00000000 80000048 80000040 // j pc - 0x8
00001f17 30 80001040 80000040 80000044 // auipc t5, 0x1
fc3f2023 00 00000000 80000044 80000048 // sw gp, -64(t5)
ff9ff06f 00 00000000 80000048 80000040 // j pc - 0x8
00001f17 30 80001040 80000040 80000044 // auipc t5, 0x1
fc3f2023 00 00000000 80000044 80000048 // sw gp, -64(t5)
ff9ff06f 00 00000000 80000048 80000040 // j pc - 0x8
00001f17 30 80001040 80000040 80000044 // auipc t5, 0x1
fc3f2023 00 00000000 80000044 80000048 // sw gp, -64(t5)
ff9ff06f 00 00000000 80000048 80000040 // j pc - 0x8
00001f17 30 80001040 80000040 80000044 // auipc t5, 0x1
fc3f2023 00 00000000 80000044 80000048 // sw gp, -64(t5)
ff9ff06f 00 00000000 80000048 80000040 // j pc - 0x8
00001f17 30 80001040 80000040 80000044 // auipc t5, 0x1
fc3f2023 00 00000000 80000044 80000048 // sw gp, -64(t5)
ff9ff06f 00 00000000 80000048 80000040 // j pc - 0x8
00001f17 30 80001040 80000040 80000044 // auipc t5, 0x1
fc3f2023 00 00000000 80000044 80000048 // sw gp, -64(t5)
ff9ff06f 00 00000000 80000048 80000040 // j pc - 0x8
00001f17 30 80001040 80000040 80000044 // auipc t5, 0x1
fc3f2023 00 00000000 80000044 80000048 // sw gp, -64(t5)
ff9ff06f 00 00000000 80000048 80000040 // j pc - 0x8
00001f17 30 80001040 80000040 80000044 // auipc t5, 0x1
fc3f2023 00 00000000 80000044 80000048 // sw gp, -64(t5)
ff9ff06f 00 00000000 80000048 80000040 // j pc - 0x8
00001f17 30 80001040 80000040 80000044 // auipc t5, 0x1
fc3f2023 00 00000000 80000044 80000048 // sw gp, -64(t5)
ff9ff06f 00 00000000 80000048 80000040 // j pc - 0x8
00001f17 30 80001040 80000040 80000044 // auipc t5, 0x1
fc3f2023 00 00000000 80000044 80000048 // sw gp, -64(t5)
ff9ff06f 00 00000000 80000048 80000040 // j pc - 0x8
00001f17 30 80001040 80000040 80000044 // auipc t5, 0x1
fc3f2023 00 00000000 80000044 80000048 // sw gp, -64(t5)
ff9ff06f 00 00000000 80000048 80000040 // j pc - 0x8
00001f17 30 80001040 80000040 80000044 // auipc t5, 0x1
fc3f2023 00 00000000 80000044 80000048 // sw gp, -64(t5)
ff9ff06f 00 00000000 80000048 80000040 // j pc - 0x8
00001f17 30 80001040 80000040 80000044 // auipc t5, 0x1
fc3f2023 00 00000000 80000044 80000048 // sw gp, -64(t5)
ff9ff06f 00 00000000 80000048 80000040 // j pc - 0x8
00001f17 30 80001040 80000040 80000044 // auipc t5, 0x1
fc3f2023 00 00000000 80000044 80000048 // sw gp, -64(t5)
ff9ff06f 00 00000000 80000048 80000040 // j pc - 0x8
00001f17 30 80001040 80000040 80000044 // auipc t5, 0x1
fc3f2023 00 00000000 80000044 80000048 // sw gp, -64(t5)
ff9ff06f 00 00000000 80000048 80000040 // j pc - 0x8
00001f17 30 80001040 80000040 80000044 // auipc t5, 0x1
fc3f2023 00 00000000 80000044 80000048 // sw gp, -64(t5)
ff9ff06f 00 00000000 80000048 80000040 // j pc - 0x8
00001f17 30 80001040 80000040 80000044 // auipc t5, 0x1
fc3f2023 00 00000000 80000044 80000048 // sw gp, -64(t5)
ff9ff06f 00 00000000 80000048 80000040 // j pc - 0x8
00001f17 30 80001040 80000040 80000044 // auipc t5, 0x1
fc3f2023 00 00000000 80000044 80000048 // sw gp, -64(t5)
ff9ff06f 00 00000000 80000048 80000040 // j pc - 0x8
00001f17 30 80001040 80000040 80000044 // auipc t5, 0x1
fc3f2023 00 00000000 80000044 80000048 // sw gp, -64(t5)
ff9ff06f 00 00000000 80000048 80000040 // j pc - 0x8
00001f17 30 80001040 80000040 80000044 // auipc t5, 0x1
fc3f2023 00 00000000 80000044 80000048 // sw gp, -64(t5)
ff9ff06f 00 00000000 80000048 80000040 // j pc - 0x8
00001f17 30 80001040 80000040 80000044 // auipc t5, 0x1
fc3f2023 00 00000000 80000044 80000048 // sw gp, -64(t5)
ff9ff06f 00 00000000 80000048 80000040 // j pc - 0x8
00001f17 30 80001040 80000040 80000044 // auipc t5, 0x1
fc3f2023 00 00000000 80000044 80000048 // sw gp, -64(t5)
ff9ff06f 00 00000000 80000048 80000040 // j pc - 0x8
00001f17 30 80001040 80000040 80000044 // auipc t5, 0x1
fc3f2023 00 00000000 80000044 80000048 // sw gp, -64(t5)
ff9ff06f 00 00000000 80000048 80000040 // j pc - 0x8
00001f17 30 80001040 80000040 80000044 // auipc t5, 0x1
fc3f2023 00 00000000 80000044 80000048 // sw gp, -64(t5)
ff9ff06f 00 00000000 80000048 80000040 // j pc - 0x8
00001f17 30 80001040 80000040 80000044 // auipc t5, 0x1
fc3f2023 00 00000000 80000044 80000048 // sw gp, -64(t5)
ff9ff06f 00 00000000 80000048 80000040 // j pc - 0x8
00001f17 30 80001040 80000040 80000044 // auipc t5, 0x1
fc3f2023 00 00000000 80000044 80000048 // sw gp, -64(t5)
ff9ff06f 00 00000000 80000048 80000040 // j pc - 0x8
00001f17 30 80001040 80000040 80000044 // auipc t5, 0x1
fc3f2023 00 00000000 80000044 80000048 // sw gp, -64(t5)
ff9ff06f 00 00000000 80000048 80000040 // j pc - 0x8
00001f17 30 80001040 80000040 80000044 // auipc t5, 0x1
fc3f2023 00 00000000 80000044 80000048 // sw gp, -64(t5)
ff9ff06f 00 00000000 80000048 80000040 // j pc - 0x8
00001f17 30 80001040 80000040 80000044 // auipc t5, 0x1
fc3f2023 00 00000000 80000044 80000048 // sw gp, -64(t5)
ff9ff06f 00 00000000 80000048 80000040 // j pc - 0x8
00001f17 30 80001040 80000040 80000044 // auipc t5, 0x1
fc3f2023 00 00000000 80000044 80000048 // sw gp, -64(t5)
ff9ff06f 00 00000000 80000048 80000040 // j pc - 0x8
00001f17 30 80001040 80000040 80000044 // auipc t5, 0x1
fc3f2023 00 00000000 80000044 80000048 // sw gp, -64(t5)
ff9ff06f 00 00000000 80000048 80000040 // j pc - 0x8
00001f17 30 80001040 80000040 80000044 // auipc t5, 0x1
fc3f2023 00 00000000 80000044 80000048 // sw gp, -64(t5)
ff9ff06f 00 00000000 80000048 80000040 // j pc - 0x8
00001f17 30 80001040 80000040 80000044 // auipc t5, 0x1
fc3f2023 00 00000000 80000044 80000048 // sw gp, -64(t5)
ff9ff06f 00 00000000 80000048 80000040 // j pc - 0x8
00001f17 30 80001040 80000040 80000044 // auipc t5, 0x1
fc3f2023 00 00000000 80000044 80000048 // sw gp, -64(t5)
ff9ff06f 00 00000000 80000048 80000040 // j pc - 0x8
00001f17 30 80001040 80000040 80000044 // auipc t5, 0x1
fc3f2023 00 00000000 80000044 80000048 // sw gp, -64(t5)
ff9ff06f 00 00000000 80000048 80000040 // j pc - 0x8
00001f17 30 80001040 80000040 80000044 // auipc t5, 0x1
fc3f2023 00 00000000 80000044 80000048 // sw gp, -64(t5)
ff9ff06f 00 00000000 80000048 80000040 // j pc - 0x8
00001f17 30 80001040 80000040 80000044 // auipc t5, 0x1
fc3f2023 00 00000000 80000044 80000048 // sw gp, -64(t5)
ff9ff06f 00 00000000 80000048 80000040 // j pc - 0x8
00001f17 30 80001040 80000040 80000044 // auipc t5, 0x1
fc3f2023 00 00000000 80000044 80000048 // sw gp, -64(t5)
ff9ff06f 00 00000000 80000048 80000040 // j pc - 0x8
00001f17 30 80001040 80000040 80000044 // auipc t5, 0x1
fc3f2023 00 00000000 80000044 80000048 // sw gp, -64(t5)
ff9ff06f 00 00000000 80000048 80000040 // j pc - 0x8
00001f17 30 80001040 80000040 80000044 // auipc t5, 0x1
fc3f2023 00 00000000 80000044 80000048 // sw gp, -64(t5)
ff9ff06f 00 00000000 80000048 80000040 // j pc - 0x8
00001f17 30 80001040 80000040 80000044 // auipc t5, 0x1
fc3f2023 00 00000000 80000044 80000048 // sw gp, -64(t5)
ff9ff06f 00 00000000 80000048 80000040 // j pc - 0x8
00001f17 30 80001040 80000040 80000044 // auipc t5, 0x1
fc3f2023 00 00000000 80000044 80000048 // sw gp, -64(t5)
ff9ff06f 00 00000000 80000048 80000040 // j pc - 0x8
00001f17 30 80001040 80000040 80000044 // auipc t5, 0x1
fc3f2023 00 00000000 80000044 80000048 // sw gp, -64(t5)
ff9ff06f 00 00000000 80000048 80000040 // j pc - 0x8
00001f17 30 80001040 80000040 80000044 // auipc t5, 0x1
fc3f2023 00 00000000 80000044 80000048 // sw gp, -64(t5)
ff9ff06f 00 00000000 80000048 80000040 // j pc - 0x8
00001f17 30 80001040 80000040 80000044 // auipc t5, 0x1
fc3f2023 00 00000000 80000044 80000048 // sw gp, -64(t5)
ff9ff06f 00 00000000 80000048 80000040 // j pc - 0x8
00001f17 30 80001040 80000040 80000044 // auipc t5, 0x1
fc3f2023 00 00000000 80000044 80000048 // sw gp, -64(t5)
ff9ff06f 00 00000000 80000048 80000040 // j pc - 0x8
00001f17 30 80001040 80000040 80000044 // auipc t5, 0x1
fc3f2023 00 00000000 80000044 80000048 // sw gp, -64(t5)
ff9ff06f 00 00000000 80000048 80000040 // j pc - 0x8
00001f17 30 80001040 80000040 80000044 // auipc t5, 0x1
fc3f2023 00 00000000 80000044 80000048 // sw gp, -64(t5)
ff9ff06f 00 00000000 80000048 80000040 // j pc - 0x8
00001f17 30 80001040 80000040 80000044 // auipc t5, 0x1
fc3f2023 00 00000000 80000044 80000048 // sw gp, -64(t5)
ff9ff06f 00 00000000 80000048 80000040 // j pc - 0x8
00001f17 30 80001040 80000040 80000044 // auipc t5, 0x1
fc3f2023 00 00000000 80000044 80000048 // sw gp, -64(t5)
ff9ff06f 00 00000000 80000048 80000040 // j pc - 0x8
00001f17 30 80001040 80000040 80000044 // auipc t5, 0x1
fc3f2023 00 00000000 80000044 80000048 // sw gp, -64(t5)
ff9ff06f 00 00000000 80000048 80000040 // j pc - 0x8
00001f17 30 80001040 80000040 80000044 // auipc t5, 0x1
fc3f2023 00 00000000 80000044 80000048 // sw gp, -64(t5)
ff9ff06f 00 00000000 80000048 80000040 // j pc - 0x8
00001f17 30 80001040 80000040 80000044 // auipc t5, 0x1
fc3f2023 00 00000000 80000044 80000048 // sw gp, -64(t5)
ff9ff06f 00 00000000 80000048 80000040 // j pc - 0x8
00001f17 30 80001040 80000040 80000044 // auipc t5, 0x1
fc3f2023 00 00000000 80000044 80000048 // sw gp, -64(t5)
ff9ff06f 00 00000000 80000048 80000040 // j pc - 0x8
00001f17 30 80001040 80000040 80000044 // auipc t5, 0x1
fc3f2023 00 00000000 80000044 80000048 // sw gp, -64(t5)
ff9ff06f 00 00000000 80000048 80000040 // j pc - 0x8
00001f17 30 80001040 80000040 80000044 // auipc t5, 0x1
fc3f2023 00 00000000 80000044 80000048 // sw gp, -64(t5)
ff9ff06f 00 00000000 80000048 80000040 // j pc - 0x8
00001f17 30 80001040 80000040 80000044 // auipc t5, 0x1
fc3f2023 00 00000000 80000044 80000048 // sw gp, -64(t5)
ff9ff06f 00 00000000 80000048 80000040 // j pc - 0x8
00001f17 30 80001040 80000040 80000044 // auipc t5, 0x1
fc3f2023 00 00000000 80000044 80000048 // sw gp, -64(t5)
ff9ff06f 00 00000000 80000048 80000040 // j pc - 0x8
00001f17 30 80001040 80000040 80000044 // auipc t5, 0x1
fc3f2023 00 00000000 80000044 80000048 // sw gp, -64(t5)
ff9ff06f 00 00000000 80000048 80000040 // j pc - 0x8
00001f17 30 80001040 80000040 80000044 // auipc t5, 0x1
fc3f2023 00 00000000 80000044 80000048 // sw gp, -64(t5)
ff9ff06f 00 00000000 80000048 80000040 // j pc - 0x8
00001f17 30 80001040 80000040 80000044 // auipc t5, 0x1
fc3f2023 00 00000000 80000044 80000048 // sw gp, -64(t5)
ff9ff06f 00 00000000 80000048 80000040 // j pc - 0x8
00001f17 30 80001040 80000040 80000044 // auipc t5, 0x1
fc3f2023 00 00000000 80000044 80000048 // sw gp, -64(t5)
ff9ff06f 00 00000000 80000048 80000040 // j pc - 0x8
00001f17 30 80001040 80000040 80000044 // auipc t5, 0x1
fc3f2023 00 00000000 80000044 80000048 // sw gp, -64(t5)
ff9ff06f 00 00000000 80000048 80000040 // j pc - 0x8
00001f17 30 80001040 80000040 80000044 // auipc t5, 0x1
fc3f2023 00 00000000 80000044 80000048 // sw gp, -64(t5)
ff9ff06f 00 00000000 80000048 80000040 // j pc - 0x8
00001f17 30 80001040 80000040 80000044 // auipc t5, 0x1
fc3f2023 00 00000000 80000044 80000048 // sw gp, -64(t5)
ff9ff06f 00 00000000 80000048 80000040 // j pc - 0x8
00001f17 30 80001040 80000040 80000044 // auipc t5, 0x1
fc3f2023 00 00000000 80000044 80000048 // sw gp, -64(t5)
ff9ff06f 00 00000000 80000048 80000040 // j pc - 0x8
00001f17 30 80001040 80000040 80000044 // auipc t5, 0x1
fc3f2023 00 00000000 80000044 80000048 // sw gp, -64(t5)
ff9ff06f 00 00000000 80000048 80000040 // j pc - 0x8
00001f17 30 80001040 80000040 80000044 // auipc t5, 0x1
fc3f2023 00 00000000 80000044 80000048 // sw gp, -64(t5)
ff9ff06f 00 00000000 80000048 80000040 // j pc - 0x8
00001f17 30 80001040 80000040 80000044 // auipc t5, 0x1
fc3f2023 00 00000000 80000044 80000048 // sw gp, -64(t5)
ff9ff06f 00 00000000 80000048 80000040 // j pc - 0x8
00001f17 30 80001040 80000040 80000044 // auipc t5, 0x1
fc3f2023 00 00000000 80000044 80000048 // sw gp, -64(t5)
ff9ff06f 00 00000000 80000048 80000040 // j pc - 0x8
00001f17 30 80001040 80000040 80000044 // auipc t5, 0x1
fc3f2023 00 00000000 80000044 80000048 // sw gp, -64(t5)
ff9ff06f 00 00000000 80000048 80000040 // j pc - 0x8
00001f17 30 80001040 80000040 80000044 // auipc t5, 0x1
fc3f2023 00 00000000 80000044 80000048 // sw gp, -64(t5)
ff9ff06f 00 00000000 80000048 80000040 // j pc - 0x8
00001f17 30 80001040 80000040 80000044 // auipc t5, 0x1
fc3f2023 00 00000000 80000044 80000048 // sw gp, -64(t5)
ff9ff06f 00 00000000 80000048 80000040 // j pc - 0x8
00001f17 30 80001040 80000040 80000044 // auipc t5, 0x1
fc3f2023 00 00000000 80000044 80000048 // sw gp, -64(t5)
ff9ff06f 00 00000000 80000048 80000040 // j pc - 0x8
00001f17 30 80001040 80000040 80000044 // auipc t5, 0x1
fc3f2023 00 00000000 80000044 80000048 // sw gp, -64(t5)
ff9ff06f 00 00000000 80000048 80000040 // j pc - 0x8
00001f17 30 80001040 80000040 80000044 // auipc t5, 0x1
fc3f2023 00 00000000 80000044 80000048 // sw gp, -64(t5)
ff9ff06f 00 00000000 80000048 80000040 // j pc - 0x8
00001f17 30 80001040 80000040 80000044 // auipc t5, 0x1
fc3f2023 00 00000000 80000044 80000048 // sw gp, -64(t5)
ff9ff06f 00 00000000 80000048 80000040 // j pc - 0x8
00001f17 30 80001040 80000040 80000044 // auipc t5, 0x1
fc3f2023 00 00000000 80000044 80000048 // sw gp, -64(t5)
ff9ff06f 00 00000000 80000048 80000040 // j pc - 0x8
00001f17 30 80001040 80000040 80000044 // auipc t5, 0x1
fc3f2023 00 00000000 80000044 80000048 // sw gp, -64(t5)
ff9ff06f 00 00000000 80000048 80000040 // j pc - 0x8
00001f17 30 80001040 80000040 80000044 // auipc t5, 0x1
fc3f2023 00 00000000 80000044 80000048 // sw gp, -64(t5)
ff9ff06f 00 00000000 80000048 80000040 // j pc - 0x8
00001f17 30 80001040 80000040 80000044 // auipc t5, 0x1
fc3f2023 00 00000000 80000044 80000048 // sw gp, -64(t5)
ff9ff06f 00 00000000 80000048 80000040 // j pc - 0x8
00001f17 30 80001040 80000040 80000044 // auipc t5, 0x1
fc3f2023 00 00000000 80000044 80000048 // sw gp, -64(t5)
ff9ff06f 00 00000000 80000048 80000040 // j pc - 0x8
00001f17 30 80001040 80000040 80000044 // auipc t5, 0x1
fc3f2023 00 00000000 80000044 80000048 // sw gp, -64(t5)
ff9ff06f 00 00000000 80000048 80000040 // j pc - 0x8
00001f17 30 80001040 80000040 80000044 // auipc t5, 0x1
fc3f2023 00 00000000 80000044 80000048 // sw gp, -64(t5)
ff9ff06f 00 00000000 80000048 80000040 // j pc - 0x8
00001f17 30 80001040 80000040 80000044 // auipc t5, 0x1
fc3f2023 00 00000000 80000044 80000048 // sw gp, -64(t5)
ff9ff06f 00 00000000 80000048 80000040 // j pc - 0x8
00001f17 30 80001040 80000040 80000044 // auipc t5, 0x1
fc3f2023 00 00000000 80000044 80000048 // sw gp, -64(t5)
ff9ff06f 00 00000000 80000048 80000040 // j pc - 0x8
00001f17 30 80001040 80000040 80000044 // auipc t5, 0x1
fc3f2023 00 00000000 80000044 80000048 // sw gp, -64(t5)
ff9ff06f 00 00000000 80000048 80000040 // j pc - 0x8
00001f17 30 80001040 80000040 80000044 // auipc t5, 0x1
fc3f2023 00 00000000 80000044 80000048 // sw gp, -64(t5)
ff9ff06f 00 00000000 80000048 80000040 // j pc - 0x8
00001f17 30 80001040 80000040 80000044 // auipc t5, 0x1
fc3f2023 00 00000000 80000044 80000048 // sw gp, -64(t5)
ff9ff06f 00 00000000 80000048 80000040 // j pc - 0x8
00001f17 30 80001040 80000040 80000044 // auipc t5, 0x1
fc3f2023 00 00000000 80000044 80000048 // sw gp, -64(t5)
ff9ff06f 00 00000000 80000048 80000040 // j pc - 0x8
00001f17 30 80001040 80000040 80000044 // auipc t5, 0x1
fc3f2023 00 00000000 80000044 80000048 // sw gp, -64(t5)
ff9ff06f 00 00000000 80000048 80000040 // j pc - 0x8
00001f17 30 80001040 80000040 80000044 // auipc t5, 0x1
fc3f2023 00 00000000 80000044 80000048 // sw gp, -64(t5)
ff9ff06f 00 00000000 80000048 80000040 // j pc - 0x8
00001f17 30 80001040 80000040 80000044 // auipc t5, 0x1
fc3f2023 00 00000000 80000044 80000048 // sw gp, -64(t5)
ff9ff06f 00 00000000 80000048 80000040 // j pc - 0x8
00001f17 30 80001040 80000040 80000044 // auipc t5, 0x1
fc3f2023 00 00000000 80000044 80000048 // sw gp, -64(t5)
ff9ff06f 00 00000000 80000048 80000040 // j pc - 0x8
00001f17 30 80001040 80000040 80000044 // auipc t5, 0x1
fc3f2023 00 00000000 80000044 80000048 // sw gp, -64(t5)
ff9ff06f 00 00000000 80000048 80000040 // j pc - 0x8
00001f17 30 80001040 80000040 80000044 // auipc t5, 0x1
fc3f2023 00 00000000 80000044 80000048 // sw gp, -64(t5)
ff9ff06f 00 00000000 80000048 80000040 // j pc - 0x8
00001f17 30 80001040 80000040 80000044 // auipc t5, 0x1
fc3f2023 00 00000000 80000044 80000048 // sw gp, -64(t5)
ff9ff06f 00 00000000 80000048 80000040 // j pc - 0x8
00001f17 30 80001040 80000040 80000044 // auipc t5, 0x1
fc3f2023 00 00000000 80000044 80000048 // sw gp, -64(t5)
ff9ff06f 00 00000000 80000048 80000040 // j pc - 0x8
00001f17 30 80001040 80000040 80000044 // auipc t5, 0x1
fc3f2023 00 00000000 80000044 80000048 // sw gp, -64(t5)
ff9ff06f 00 00000000 80000048 80000040 // j pc - 0x8
00001f17 30 80001040 80000040 80000044 // auipc t5, 0x1
fc3f2023 00 00000000 80000044 80000048 // sw gp, -64(t5)
ff9ff06f 00 00000000 80000048 80000040 // j pc - 0x8
00001f17 30 80001040 80000040 80000044 // auipc t5, 0x1
fc3f2023 00 00000000 80000044 80000048 // sw gp, -64(t5)
ff9ff06f 00 00000000 80000048 80000040 // j pc - 0x8
00001f17 30 80001040 80000040 80000044 // auipc t5, 0x1
fc3f2023 00 00000000 80000044 80000048 // sw gp, -64(t5)
ff9ff06f 00 00000000 80000048 80000040 // j pc - 0x8
00001f17 30 80001040 80000040 80000044 // auipc t5, 0x1
fc3f2023 00 00000000 80000044 80000048 // sw gp, -64(t5)
ff9ff06f 00 00000000 80000048 80000040 // j pc - 0x8
00001f17 30 80001040 80000040 80000044 // auipc t5, 0x1
fc3f2023 00 00000000 80000044 80000048 // sw gp, -64(t5)
ff9ff06f 00 00000000 80000048 80000040 // j pc - 0x8
00001f17 30 80001040 80000040 80000044 // auipc t5, 0x1
fc3f2023 00 00000000 80000044 80000048 // sw gp, -64(t5)
ff9ff06f 00 00000000 80000048 80000040 // j pc - 0x8
00001f17 30 80001040 80000040 80000044 // auipc t5, 0x1
fc3f2023 00 00000000 80000044 80000048 // sw gp, -64(t5)
ff9ff06f 00 00000000 80000048 80000040 // j pc - 0x8
00001f17 30 80001040 80000040 80000044 // auipc t5, 0x1
fc3f2023 00 00000000 80000044 80000048 // sw gp, -64(t5)
ff9ff06f 00 00000000 80000048 80000040 // j pc - 0x8
00001f17 30 80001040 80000040 80000044 // auipc t5, 0x1
fc3f2023 00 00000000 80000044 80000048 // sw gp, -64(t5)
ff9ff06f 00 00000000 80000048 80000040 // j pc - 0x8
00001f17 30 80001040 80000040 80000044 // auipc t5, 0x1
fc3f2023 00 00000000 80000044 80000048 // sw gp, -64(t5)
ff9ff06f 00 00000000 80000048 80000040 // j pc - 0x8
00001f17 30 80001040 80000040 80000044 // auipc t5, 0x1
fc3f2023 00 00000000 80000044 80000048 // sw gp, -64(t5)
ff9ff06f 00 00000000 80000048 80000040 // j pc - 0x8
00001f17 30 80001040 80000040 80000044 // auipc t5, 0x1
fc3f2023 00 00000000 80000044 80000048 // sw gp, -64(t5)
ff9ff06f 00 00000000 80000048 80000040 // j pc - 0x8
00001f17 30 80001040 80000040 80000044 // auipc t5, 0x1
fc3f2023 00 00000000 80000044 80000048 // sw gp, -64(t5)
ff9ff06f 00 00000000 80000048 80000040 // j pc - 0x8
00001f17 30 80001040 80000040 80000044 // auipc t5, 0x1
fc3f2023 00 00000000 80000044 80000048 // sw gp, -64(t5)
ff9ff06f 00 00000000 80000048 80000040 // j pc - 0x8
00001f17 30 80001040 80000040 80000044 // auipc t5, 0x1
fc3f2023 00 00000000 80000044 80000048 // sw gp, -64(t5)
ff9ff06f 00 00000000 80000048 80000040 // j pc - 0x8
00001f17 30 80001040 80000040 80000044 // auipc t5, 0x1
fc3f2023 00 00000000 80000044 80000048 // sw gp, -64(t5)
ff9ff06f 00 00000000 80000048 80000040 // j pc - 0x8
00001f17 30 80001040 80000040 80000044 // auipc t5, 0x1
fc3f2023 00 00000000 80000044 80000048 // sw gp, -64(t5)
ff9ff06f 00 00000000 80000048 80000040 // j pc - 0x8
00001f17 30 80001040 80000040 80000044 // auipc t5, 0x1
fc3f2023 00 00000000 80000044 80000048 // sw gp, -64(t5)
ff9ff06f 00 00000000 80000048 80000040 // j pc - 0x8
00001f17 30 80001040 80000040 80000044 // auipc t5, 0x1
fc3f2023 00 00000000 80000044 80000048 // sw gp, -64(t5)
ff9ff06f 00 00000000 80000048 80000040 // j pc - 0x8
00001f17 30 80001040 80000040 80000044 // auipc t5, 0x1
fc3f2023 00 00000000 80000044 80000048 // sw gp, -64(t5)
ff9ff06f 00 00000000 80000048 80000040 // j pc - 0x8
00001f17 30 80001040 80000040 80000044 // auipc t5, 0x1
fc3f2023 00 00000000 80000044 80000048 // sw gp, -64(t5)
ff9ff06f 00 00000000 80000048 80000040 // j pc - 0x8
00001f17 30 80001040 80000040 80000044 // auipc t5, 0x1
fc3f2023 00 00000000 80000044 80000048 // sw gp, -64(t5)
ff9ff06f 00 00000000 80000048 80000040 // j pc - 0x8
00001f17 30 80001040 80000040 80000044 // auipc t5, 0x1
fc3f2023 00 00000000 80000044 80000048 // sw gp, -64(t5)
ff9ff06f 00 00000000 80000048 80000040 // j pc - 0x8
00001f17 30 80001040 80000040 80000044 // auipc t5, 0x1
fc3f2023 00 00000000 80000044 80000048 // sw gp, -64(t5)
ff9ff06f 00 00000000 80000048 80000040 // j pc - 0x8
00001f17 30 80001040 80000040 80000044 // auipc t5, 0x1
fc3f2023 00 00000000 80000044 80000048 // sw gp, -64(t5)
ff9ff06f 00 00000000 80000048 80000040 // j pc - 0x8
00001f17 30 80001040 80000040 80000044 // auipc t5, 0x1
fc3f2023 00 00000000 80000044 80000048 // sw gp, -64(t5)
ff9ff06f 00 00000000 80000048 80000040 // j pc - 0x8
00001f17 30 80001040 80000040 80000044 // auipc t5, 0x1
fc3f2023 00 00000000 80000044 80000048 // sw gp, -64(t5)
ff9ff06f 00 00000000 80000048 80000040 // j pc - 0x8
00001f17 30 80001040 80000040 80000044 // auipc t5, 0x1
fc3f2023 00 00000000 80000044 80000048 // sw gp, -64(t5)
ff9ff06f 00 00000000 80000048 80000040 // j pc - 0x8
00001f17 30 80001040 80000040 80000044 // auipc t5, 0x1
fc3f2023 00 00000000 80000044 80000048 // sw gp, -64(t5)
ff9ff06f 00 00000000 80000048 80000040 // j pc - 0x8
00001f17 30 80001040 80000040 80000044 // auipc t5, 0x1
fc3f2023 00 00000000 80000044 80000048 // sw gp, -64(t5)
ff9ff06f 00 00000000 80000048 80000040 // j pc - 0x8
00001f17 30 80001040 80000040 80000044 // auipc t5, 0x1
fc3f2023 00 00000000 80000044 80000048 // sw gp, -64(t5)
ff9ff06f 00 00000000 80000048 80000040 // j pc - 0x8
00001f17 30 80001040 80000040 80000044 // auipc t5, 0x1
fc3f2023 00 00000000 80000044 80000048 // sw gp, -64(t5)
ff9ff06f 00 00000000 80000048 80000040 // j pc - 0x8
00001f17 30 80001040 80000040 80000044 // auipc t5, 0x1
fc3f2023 00 00000000 80000044 80000048 // sw gp, -64(t5)
ff9ff06f 00 00000000 80000048 80000040 // j pc - 0x8
00001f17 30 80001040 80000040 80000044 // auipc t5, 0x1
fc3f2023 00 00000000 80000044 80000048 // sw gp, -64(t5)
ff9ff06f 00 00000000 80000048 80000040 // j pc - 0x8
00001f17 30 80001040 80000040 80000044 // auipc t5, 0x1
fc3f2023 00 00000000 80000044 80000048 // sw gp, -64(t5)
ff9ff06f 00 00000000 80000048 80000040 // j pc - 0x8
00001f17 30 80001040 80000040 80000044 // auipc t5, 0x1
fc3f2023 00 00000000 80000044 80000048 // sw gp, -64(t5)
ff9ff06f 00 00000000 80000048 80000040 // j pc - 0x8
00001f17 30 80001040 80000040 80000044 // auipc t5, 0x1
fc3f2023 00 00000000 80000044 80000048 // sw gp, -64(t5)
ff9ff06f 00 00000000 80000048 80000040 // j pc - 0x8
00001f17 30 80001040 80000040 80000044 // auipc t5, 0x1
fc3f2023 00 00000000 80000044 80000048 // sw gp, -64(t5)
ff9ff06f 00 00000000 80000048 80000040 // j pc - 0x8
00001f17 30 80001040 80000040 80000044 // auipc t5, 0x1
fc3f2023 00 00000000 80000044 80000048 // sw gp, -64(t5)
ff9ff06f 00 00000000 80000048 80000040 // j pc - 0x8
00001f17 30 80001040 80000040 80000044 // auipc t5, 0x1
fc3f2023 00 00000000 80000044 80000048 // sw gp, -64(t5)
ff9ff06f 00 00000000 80000048 80000040 // j pc - 0x8
00001f17 30 80001040 80000040 80000044 // auipc t5, 0x1
fc3f2023 00 00000000 80000044 80000048 // sw gp, -64(t5)
ff9ff06f 00 00000000 80000048 80000040 // j pc - 0x8
00001f17 30 80001040 80000040 80000044 // auipc t5, 0x1
fc3f2023 00 00000000 80000044 80000048 // sw gp, -64(t5)
ff9ff06f 00 00000000 80000048 80000040 // j pc - 0x8
00001f17 30 80001040 80000040 80000044 // auipc t5, 0x1
fc3f2023 00 00000000 80000044 80000048 // sw gp, -64(t5)
ff9ff06f 00 00000000 80000048 80000040 // j pc - 0x8
00001f17 30 80001040 80000040 80000044 // auipc t5, 0x1
fc3f2023 00 00000000 80000044 80000048 // sw gp, -64(t5)
ff9ff06f 00 00000000 80000048 80000040 // j pc - 0x8
00001f17 30 80001040 80000040 80000044 // auipc t5, 0x1
fc3f2023 00 00000000 80000044 80000048 // sw gp, -64(t5)
ff9ff06f 00 00000000 80000048 80000040 // j pc - 0x8
00001f17 30 80001040 80000040 80000044 // auipc t5, 0x1
fc3f2023 00 00000000 80000044 80000048 // sw gp, -64(t5)
ff9ff06f 00 00000000 80000048 80000040 // j pc - 0x8
00001f17 30 80001040 80000040 80000044 // auipc t5, 0x1
fc3f2023 00 00000000 80000044 80000048 // sw gp, -64(t5)
ff9ff06f 00 00000000 80000048 80000040 // j pc - 0x8
00001f17 30 80001040 80000040 80000044 // auipc t5, 0x1
fc3f2023 00 00000000 80000044 80000048 // sw gp, -64(t5)
ff9ff06f 00 00000000 80000048 80000040 // j pc - 0x8
00001f17 30 80001040 80000040 80000044 // auipc t5, 0x1
fc3f2023 00 00000000 80000044 80000048 // sw gp, -64(t5)
ff9ff06f 00 00000000 80000048 80000040 // j pc - 0x8
00001f17 30 80001040 80000040 80000044 // auipc t5, 0x1
fc3f2023 00 00000000 80000044 80000048 // sw gp, -64(t5)
ff9ff06f 00 00000000 80000048 80000040 // j pc - 0x8
00001f17 30 80001040 80000040 80000044 // auipc t5, 0x1
fc3f2023 00 00000000 80000044 80000048 // sw gp, -64(t5)
ff9ff06f 00 00000000 80000048 80000040 // j pc - 0x8
00001f17 30 80001040 80000040 80000044 // auipc t5, 0x1
fc3f2023 00 00000000 80000044 80000048 // sw gp, -64(t5)
ff9ff06f 00 00000000 80000048 80000040 // j pc - 0x8
00001f17 30 80001040 80000040 80000044 // auipc t5, 0x1
fc3f2023 00 00000000 80000044 80000048 // sw gp, -64(t5)
ff9ff06f 00 00000000 80000048 80000040 // j pc - 0x8
00001f17 30 80001040 80000040 80000044 // auipc t5, 0x1
fc3f2023 00 00000000 80000044 80000048 // sw gp, -64(t5)
ff9ff06f 00 00000000 80000048 80000040 // j pc - 0x8
00001f17 30 80001040 80000040 80000044 // auipc t5, 0x1
fc3f2023 00 00000000 80000044 80000048 // sw gp, -64(t5)
ff9ff06f 00 00000000 80000048 80000040 // j pc - 0x8
00001f17 30 80001040 80000040 80000044 // auipc t5, 0x1
fc3f2023 00 00000000 80000044 80000048 // sw gp, -64(t5)
ff9ff06f 00 00000000 80000048 80000040 // j pc - 0x8
00001f17 30 80001040 80000040 80000044 // auipc t5, 0x1
fc3f2023 00 00000000 80000044 80000048 // sw gp, -64(t5)
ff9ff06f 00 00000000 80000048 80000040 // j pc - 0x8
00001f17 30 80001040 80000040 80000044 // auipc t5, 0x1
fc3f2023 00 00000000 80000044 80000048 // sw gp, -64(t5)
ff9ff06f 00 00000000 80000048 80000040 // j pc - 0x8
00001f17 30 80001040 80000040 80000044 // auipc t5, 0x1
fc3f2023 00 00000000 80000044 80000048 // sw gp, -64(t5)
ff9ff06f 00 00000000 80000048 80000040 // j pc - 0x8
00001f17 30 80001040 80000040 80000044 // auipc t5, 0x1
fc3f2023 00 00000000 80000044 80000048 // sw gp, -64(t5)
ff9ff06f 00 00000000 80000048 80000040 // j pc - 0x8
00001f17 30 80001040 80000040 80000044 // auipc t5, 0x1
fc3f2023 00 00000000 80000044 80000048 // sw gp, -64(t5)
ff9ff06f 00 00000000 80000048 80000040 // j pc - 0x8
00001f17 30 80001040 80000040 80000044 // auipc t5, 0x1
fc3f2023 00 00000000 80000044 80000048 // sw gp, -64(t5)
ff9ff06f 00 00000000 80000048 80000040 // j pc - 0x8
00001f17 30 80001040 80000040 80000044 // auipc t5, 0x1
fc3f2023 00 00000000 80000044 80000048 // sw gp, -64(t5)
ff9ff06f 00 00000000 80000048 80000040 // j pc - 0x8
00001f17 30 80001040 80000040 80000044 // auipc t5, 0x1
fc3f2023 00 00000000 80000044 80000048 // sw gp, -64(t5)
ff9ff06f 00 00000000 80000048 80000040 // j pc - 0x8
00001f17 30 80001040 80000040 80000044 // auipc t5, 0x1
fc3f2023 00 00000000 80000044 80000048 // sw gp, -64(t5)
ff9ff06f 00 00000000 80000048 80000040 // j pc - 0x8
00001f17 30 80001040 80000040 80000044 // auipc t5, 0x1
fc3f2023 00 00000000 80000044 80000048 // sw gp, -64(t5)
ff9ff06f 00 00000000 80000048 80000040 // j pc - 0x8
00001f17 30 80001040 80000040 80000044 // auipc t5, 0x1
fc3f2023 00 00000000 80000044 80000048 // sw gp, -64(t5)
ff9ff06f 00 00000000 80000048 80000040 // j pc - 0x8
00001f17 30 80001040 80000040 80000044 // auipc t5, 0x1
fc3f2023 00 00000000 80000044 80000048 // sw gp, -64(t5)
ff9ff06f 00 00000000 80000048 80000040 // j pc - 0x8
00001f17 30 80001040 80000040 80000044 // auipc t5, 0x1
fc3f2023 00 00000000 80000044 80000048 // sw gp, -64(t5)
ff9ff06f 00 00000000 80000048 80000040 // j pc - 0x8
00001f17 30 80001040 80000040 80000044 // auipc t5, 0x1
fc3f2023 00 00000000 80000044 80000048 // sw gp, -64(t5)
ff9ff06f 00 00000000 80000048 80000040 // j pc - 0x8
00001f17 30 80001040 80000040 80000044 // auipc t5, 0x1
fc3f2023 00 00000000 80000044 80000048 // sw gp, -64(t5)
ff9ff06f 00 00000000 80000048 80000040 // j pc - 0x8
00001f17 30 80001040 80000040 80000044 // auipc t5, 0x1
fc3f2023 00 00000000 80000044 80000048 // sw gp, -64(t5)
ff9ff06f 00 00000000 80000048 80000040 // j pc - 0x8
00001f17 30 80001040 80000040 80000044 // auipc t5, 0x1
fc3f2023 00 00000000 80000044 80000048 // sw gp, -64(t5)
ff9ff06f 00 00000000 80000048 80000040 // j pc - 0x8
00001f17 30 80001040 80000040 80000044 // auipc t5, 0x1
fc3f2023 00 00000000 80000044 80000048 // sw gp, -64(t5)
ff9ff06f 00 00000000 80000048 80000040 // j pc - 0x8
00001f17 30 80001040 80000040 80000044 // auipc t5, 0x1
fc3f2023 00 00000000 80000044 80000048 // sw gp, -64(t5)
ff9ff06f 00 00000000 80000048 80000040 // j pc - 0x8
00001f17 30 80001040 80000040 80000044 // auipc t5, 0x1
fc3f2023 00 00000000 80000044 80000048 // sw gp, -64(t5)
ff9ff06f 00 00000000 80000048 80000040 // j pc - 0x8
00001f17 30 80001040 80000040 80000044 // auipc t5, 0x1
fc3f2023 00 00000000 80000044 80000048 // sw gp, -64(t5)
ff9ff06f 00 00000000 80000048 80000040 // j pc - 0x8
00001f17 30 80001040 80000040 80000044 // auipc t5, 0x1
fc3f2023 00 00000000 80000044 80000048 // sw gp, -64(t5)
ff9ff06f 00 00000000 80000048 80000040 // j pc - 0x8
00001f17 30 80001040 80000040 80000044 // auipc t5, 0x1
fc3f2023 00 00000000 80000044 80000048 // sw gp, -64(t5)
ff9ff06f 00 00000000 80000048 80000040 // j pc - 0x8
00001f17 30 80001040 80000040 80000044 // auipc t5, 0x1
fc3f2023 00 00000000 80000044 80000048 // sw gp, -64(t5)
ff9ff06f 00 00000000 80000048 80000040 // j pc - 0x8
00001f17 30 80001040 80000040 80000044 // auipc t5, 0x1
fc3f2023 00 00000000 80000044 80000048 // sw gp, -64(t5)
ff9ff06f 00 00000000 80000048 80000040 // j pc - 0x8
00001f17 30 80001040 80000040 80000044 // auipc t5, 0x1
fc3f2023 00 00000000 80000044 80000048 // sw gp, -64(t5)
ff9ff06f 00 00000000 80000048 80000040 // j pc - 0x8
00001f17 30 80001040 80000040 80000044 // auipc t5, 0x1
fc3f2023 00 00000000 80000044 80000048 // sw gp, -64(t5)
ff9ff06f 00 00000000 80000048 80000040 // j pc - 0x8
00001f17 30 80001040 80000040 80000044 // auipc t5, 0x1
fc3f2023 00 00000000 80000044 80000048 // sw gp, -64(t5)
ff9ff06f 00 00000000 80000048 80000040 // j pc - 0x8
00001f17 30 80001040 80000040 80000044 // auipc t5, 0x1
fc3f2023 00 00000000 80000044 80000048 // sw gp, -64(t5)
ff9ff06f 00 00000000 80000048 80000040 // j pc - 0x8
00001f17 30 80001040 80000040 80000044 // auipc t5, 0x1
fc3f2023 00 00000000 80000044 80000048 // sw gp, -64(t5)
ff9ff06f 00 00000000 80000048 80000040 // j pc - 0x8
00001f17 30 80001040 80000040 80000044 // auipc t5, 0x1
fc3f2023 00 00000000 80000044 80000048 // sw gp, -64(t5)
ff9ff06f 00 00000000 80000048 80000040 // j pc - 0x8
00001f17 30 80001040 80000040 80000044 // auipc t5, 0x1
fc3f2023 00 00000000 80000044 80000048 // sw gp, -64(t5)
ff9ff06f 00 00000000 80000048 80000040 // j pc - 0x8
00001f17 30 80001040 80000040 80000044 // auipc t5, 0x1
fc3f2023 00 00000000 80000044 80000048 // sw gp, -64(t5)
ff9ff06f 00 00000000 80000048 80000040 // j pc - 0x8
00001f17 30 80001040 80000040 80000044 // auipc t5, 0x1
fc3f2023 00 00000000 80000044 80000048 // sw gp, -64(t5)
ff9ff06f 00 00000000 80000048 80000040 // j pc - 0x8
00001f17 30 80001040 80000040 80000044 // auipc t5, 0x1
fc3f2023 00 00000000 80000044 80000048 // sw gp, -64(t5)
ff9ff06f 00 00000000 80000048 80000040 // j pc - 0x8
00001f17 30 80001040 80000040 80000044 // auipc t5, 0x1
fc3f2023 00 00000000 80000044 80000048 // sw gp, -64(t5)
ff9ff06f 00 00000000 80000048 80000040 // j pc - 0x8
00001f17 30 80001040 80000040 80000044 // auipc t5, 0x1
fc3f2023 00 00000000 80000044 80000048 // sw gp, -64(t5)
ff9ff06f 00 00000000 80000048 80000040 // j pc - 0x8
00001f17 30 80001040 80000040 80000044 // auipc t5, 0x1
fc3f2023 00 00000000 80000044 80000048 // sw gp, -64(t5)
ff9ff06f 00 00000000 80000048 80000040 // j pc - 0x8
00001f17 30 80001040 80000040 80000044 // auipc t5, 0x1
fc3f2023 00 00000000 80000044 80000048 // sw gp, -64(t5)
ff9ff06f 00 00000000 80000048 80000040 // j pc - 0x8
00001f17 30 80001040 80000040 80000044 // auipc t5, 0x1
fc3f2023 00 00000000 80000044 80000048 // sw gp, -64(t5)
ff9ff06f 00 00000000 80000048 80000040 // j pc - 0x8
00001f17 30 80001040 80000040 80000044 // auipc t5, 0x1
fc3f2023 00 00000000 80000044 80000048 // sw gp, -64(t5)
ff9ff06f 00 00000000 80000048 80000040 // j pc - 0x8
00001f17 30 80001040 80000040 80000044 // auipc t5, 0x1
fc3f2023 00 00000000 80000044 80000048 // sw gp, -64(t5)
ff9ff06f 00 00000000 80000048 80000040 // j pc - 0x8
00001f17 30 80001040 80000040 80000044 // auipc t5, 0x1
fc3f2023 00 00000000 80000044 80000048 // sw gp, -64(t5)
ff9ff06f 00 00000000 80000048 80000040 // j pc - 0x8
00001f17 30 80001040 80000040 80000044 // auipc t5, 0x1
fc3f2023 00 00000000 80000044 80000048 // sw gp, -64(t5)
ff9ff06f 00 00000000 80000048 80000040 // j pc - 0x8
00001f17 30 80001040 80000040 80000044 // auipc t5, 0x1
fc3f2023 00 00000000 80000044 80000048 // sw gp, -64(t5)
ff9ff06f 00 00000000 80000048 80000040 // j pc - 0x8
00001f17 30 80001040 80000040 80000044 // auipc t5, 0x1
fc3f2023 00 00000000 80000044 80000048 // sw gp, -64(t5)
ff9ff06f 00 00000000 80000048 80000040 // j pc - 0x8
00001f17 30 80001040 80000040 80000044 // auipc t5, 0x1
fc3f2023 00 00000000 80000044 80000048 // sw gp, -64(t5)
ff9ff06f 00 00000000 80000048 80000040 // j pc - 0x8
00001f17 30 80001040 80000040 80000044 // auipc t5, 0x1
fc3f2023 00 00000000 80000044 80000048 // sw gp, -64(t5)
ff9ff06f 00 00000000 80000048 80000040 // j pc - 0x8
00001f17 30 80001040 80000040 80000044 // auipc t5, 0x1
fc3f2023 00 00000000 80000044 80000048 // sw gp, -64(t5)
ff9ff06f 00 00000000 80000048 80000040 // j pc - 0x8
00001f17 30 80001040 80000040 80000044 // auipc t5, 0x1
fc3f2023 00 00000000 80000044 80000048 // sw gp, -64(t5)
ff9ff06f 00 00000000 80000048 80000040 // j pc - 0x8
00001f17 30 80001040 80000040 80000044 // auipc t5, 0x1
fc3f2023 00 00000000 80000044 80000048 // sw gp, -64(t5)
ff9ff06f 00 00000000 80000048 80000040 // j pc - 0x8
00001f17 30 80001040 80000040 80000044 // auipc t5, 0x1
fc3f2023 00 00000000 80000044 80000048 // sw gp, -64(t5)
ff9ff06f 00 00000000 80000048 80000040 // j pc - 0x8
00001f17 30 80001040 80000040 80000044 // auipc t5, 0x1
fc3f2023 00 00000000 80000044 80000048 // sw gp, -64(t5)
ff9ff06f 00 00000000 80000048 80000040 // j pc - 0x8
00001f17 30 80001040 80000040 80000044 // auipc t5, 0x1
fc3f2023 00 00000000 80000044 80000048 // sw gp, -64(t5)
ff9ff06f 00 00000000 80000048 80000040 // j pc - 0x8
00001f17 30 80001040 80000040 80000044 // auipc t5, 0x1
fc3f2023 00 00000000 80000044 80000048 // sw gp, -64(t5)
ff9ff06f 00 00000000 80000048 80000040 // j pc - 0x8
00001f17 30 80001040 80000040 80000044 // auipc t5, 0x1
fc3f2023 00 00000000 80000044 80000048 // sw gp, -64(t5)
ff9ff06f 00 00000000 80000048 80000040 // j pc - 0x8
00001f17 30 80001040 80000040 80000044 // auipc t5, 0x1
fc3f2023 00 00000000 80000044 80000048 // sw gp, -64(t5)
ff9ff06f 00 00000000 80000048 80000040 // j pc - 0x8
00001f17 30 80001040 80000040 80000044 // auipc t5, 0x1
fc3f2023 00 00000000 80000044 80000048 // sw gp, -64(t5)
ff9ff06f 00 00000000 80000048 80000040 // j pc - 0x8
00001f17 30 80001040 80000040 80000044 // auipc t5, 0x1
fc3f2023 00 00000000 80000044 80000048 // sw gp, -64(t5)
ff9ff06f 00 00000000 80000048 80000040 // j pc - 0x8
00001f17 30 80001040 80000040 80000044 // auipc t5, 0x1
fc3f2023 00 00000000 80000044 80000048 // sw gp, -64(t5)
ff9ff06f 00 00000000 80000048 80000040 // j pc - 0x8
00001f17 30 80001040 80000040 80000044 // auipc t5, 0x1
fc3f2023 00 00000000 80000044 80000048 // sw gp, -64(t5)
ff9ff06f 00 00000000 80000048 80000040 // j pc - 0x8
00001f17 30 80001040 80000040 80000044 // auipc t5, 0x1
fc3f2023 00 00000000 80000044 80000048 // sw gp, -64(t5)
ff9ff06f 00 00000000 80000048 80000040 // j pc - 0x8
00001f17 30 80001040 80000040 80000044 // auipc t5, 0x1
fc3f2023 00 00000000 80000044 80000048 // sw gp, -64(t5)
ff9ff06f 00 00000000 80000048 80000040 // j pc - 0x8
00001f17 30 80001040 80000040 80000044 // auipc t5, 0x1
fc3f2023 00 00000000 80000044 80000048 // sw gp, -64(t5)
ff9ff06f 00 00000000 80000048 80000040 // j pc - 0x8
00001f17 30 80001040 80000040 80000044 // auipc t5, 0x1
fc3f2023 00 00000000 80000044 80000048 // sw gp, -64(t5)
ff9ff06f 00 00000000 80000048 80000040 // j pc - 0x8
00001f17 30 80001040 80000040 80000044 // auipc t5, 0x1
fc3f2023 00 00000000 80000044 80000048 // sw gp, -64(t5)
ff9ff06f 00 00000000 80000048 80000040 // j pc - 0x8
00001f17 30 80001040 80000040 80000044 // auipc t5, 0x1
fc3f2023 00 00000000 80000044 80000048 // sw gp, -64(t5)
ff9ff06f 00 00000000 80000048 80000040 // j pc - 0x8
00001f17 30 80001040 80000040 80000044 // auipc t5, 0x1
fc3f2023 00 00000000 80000044 80000048 // sw gp, -64(t5)
ff9ff06f 00 00000000 80000048 80000040 // j pc - 0x8
00001f17 30 80001040 80000040 80000044 // auipc t5, 0x1
fc3f2023 00 00000000 80000044 80000048 // sw gp, -64(t5)
ff9ff06f 00 00000000 80000048 80000040 // j pc - 0x8
00001f17 30 80001040 80000040 80000044 // auipc t5, 0x1
fc3f2023 00 00000000 80000044 80000048 // sw gp, -64(t5)
ff9ff06f 00 00000000 80000048 80000040 // j pc - 0x8
00001f17 30 80001040 80000040 80000044 // auipc t5, 0x1
fc3f2023 00 00000000 80000044 80000048 // sw gp, -64(t5)
ff9ff06f 00 00000000 80000048 80000040 // j pc - 0x8
00001f17 30 80001040 80000040 80000044 // auipc t5, 0x1
fc3f2023 00 00000000 80000044 80000048 // sw gp, -64(t5)
ff9ff06f 00 00000000 80000048 80000040 // j pc - 0x8
00001f17 30 80001040 80000040 80000044 // auipc t5, 0x1
fc3f2023 00 00000000 80000044 80000048 // sw gp, -64(t5)
ff9ff06f 00 00000000 80000048 80000040 // j pc - 0x8
00001f17 30 80001040 80000040 80000044 // auipc t5, 0x1
fc3f2023 00 00000000 80000044 80000048 // sw gp, -64(t5)
ff9ff06f 00 00000000 80000048 80000040 // j pc - 0x8
00001f17 30 80001040 80000040 80000044 // auipc t5, 0x1
fc3f2023 00 00000000 80000044 80000048 // sw gp, -64(t5)
ff9ff06f 00 00000000 80000048 80000040 // j pc - 0x8
00001f17 30 80001040 80000040 80000044 // auipc t5, 0x1
fc3f2023 00 00000000 80000044 80000048 // sw gp, -64(t5)
ff9ff06f 00 00000000 80000048 80000040 // j pc - 0x8
00001f17 30 80001040 80000040 80000044 // auipc t5, 0x1
fc3f2023 00 00000000 80000044 80000048 // sw gp, -64(t5)
ff9ff06f 00 00000000 80000048 80000040 // j pc - 0x8
00001f17 30 80001040 80000040 80000044 // auipc t5, 0x1
fc3f2023 00 00000000 80000044 80000048 // sw gp, -64(t5)
ff9ff06f 00 00000000 80000048 80000040 // j pc - 0x8
00001f17 30 80001040 80000040 80000044 // auipc t5, 0x1
fc3f2023 00 00000000 80000044 80000048 // sw gp, -64(t5)
ff9ff06f 00 00000000 80000048 80000040 // j pc - 0x8
00001f17 30 80001040 80000040 80000044 // auipc t5, 0x1
fc3f2023 00 00000000 80000044 80000048 // sw gp, -64(t5)
ff9ff06f 00 00000000 80000048 80000040 // j pc - 0x8
00001f17 30 80001040 80000040 80000044 // auipc t5, 0x1
fc3f2023 00 00000000 80000044 80000048 // sw gp, -64(t5)
ff9ff06f 00 00000000 80000048 80000040 // j pc - 0x8
00001f17 30 80001040 80000040 80000044 // auipc t5, 0x1
fc3f2023 00 00000000 80000044 80000048 // sw gp, -64(t5)
ff9ff06f 00 00000000 80000048 80000040 // j pc - 0x8
00001f17 30 80001040 80000040 80000044 // auipc t5, 0x1
fc3f2023 00 00000000 80000044 80000048 // sw gp, -64(t5)
ff9ff06f 00 00000000 80000048 80000040 // j pc - 0x8
00001f17 30 80001040 80000040 80000044 // auipc t5, 0x1
fc3f2023 00 00000000 80000044 80000048 // sw gp, -64(t5)
ff9ff06f 00 00000000 80000048 80000040 // j pc - 0x8
00001f17 30 80001040 80000040 80000044 // auipc t5, 0x1
fc3f2023 00 00000000 80000044 80000048 // sw gp, -64(t5)
ff9ff06f 00 00000000 80000048 80000040 // j pc - 0x8
00001f17 30 80001040 80000040 80000044 // auipc t5, 0x1
fc3f2023 00 00000000 80000044 80000048 // sw gp, -64(t5)
ff9ff06f 00 00000000 80000048 80000040 // j pc - 0x8
00001f17 30 80001040 80000040 80000044 // auipc t5, 0x1
fc3f2023 00 00000000 80000044 80000048 // sw gp, -64(t5)
ff9ff06f 00 00000000 80000048 80000040 // j pc - 0x8
00001f17 30 80001040 80000040 80000044 // auipc t5, 0x1
fc3f2023 00 00000000 80000044 80000048 // sw gp, -64(t5)
ff9ff06f 00 00000000 80000048 80000040 // j pc - 0x8
00001f17 30 80001040 80000040 80000044 // auipc t5, 0x1
fc3f2023 00 00000000 80000044 80000048 // sw gp, -64(t5)
ff9ff06f 00 00000000 80000048 80000040 // j pc - 0x8
00001f17 30 80001040 80000040 80000044 // auipc t5, 0x1
fc3f2023 00 00000000 80000044 80000048 // sw gp, -64(t5)
ff9ff06f 00 00000000 80000048 80000040 // j pc - 0x8
00001f17 30 80001040 80000040 80000044 // auipc t5, 0x1
fc3f2023 00 00000000 80000044 80000048 // sw gp, -64(t5)
ff9ff06f 00 00000000 80000048 80000040 // j pc - 0x8
00001f17 30 80001040 80000040 80000044 // auipc t5, 0x1
fc3f2023 00 00000000 80000044 80000048 // sw gp, -64(t5)
ff9ff06f 00 00000000 80000048 80000040 // j pc - 0x8
00001f17 30 80001040 80000040 80000044 // auipc t5, 0x1
fc3f2023 00 00000000 80000044 80000048 // sw gp, -64(t5)
ff9ff06f 00 00000000 80000048 80000040 // j pc - 0x8
00001f17 30 80001040 80000040 80000044 // auipc t5, 0x1
fc3f2023 00 00000000 80000044 80000048 // sw gp, -64(t5)
ff9ff06f 00 00000000 80000048 80000040 // j pc - 0x8
00001f17 30 80001040 80000040 80000044 // auipc t5, 0x1
fc3f2023 00 00000000 80000044 80000048 // sw gp, -64(t5)
ff9ff06f 00 00000000 80000048 80000040 // j pc - 0x8
00001f17 30 80001040 80000040 80000044 // auipc t5, 0x1
fc3f2023 00 00000000 80000044 80000048 // sw gp, -64(t5)
ff9ff06f 00 00000000 80000048 80000040 // j pc - 0x8
00001f17 30 80001040 80000040 80000044 // auipc t5, 0x1
fc3f2023 00 00000000 80000044 80000048 // sw gp, -64(t5)
ff9ff06f 00 00000000 80000048 80000040 // j pc - 0x8
00001f17 30 80001040 80000040 80000044 // auipc t5, 0x1
fc3f2023 00 00000000 80000044 80000048 // sw gp, -64(t5)
ff9ff06f 00 00000000 80000048 80000040 // j pc - 0x8
00001f17 30 80001040 80000040 80000044 // auipc t5, 0x1
fc3f2023 00 00000000 80000044 80000048 // sw gp, -64(t5)
ff9ff06f 00 00000000 80000048 80000040 // j pc - 0x8
00001f17 30 80001040 80000040 80000044 // auipc t5, 0x1
fc3f2023 00 00000000 80000044 80000048 // sw gp, -64(t5)
ff9ff06f 00 00000000 80000048 80000040 // j pc - 0x8
00001f17 30 80001040 80000040 80000044 // auipc t5, 0x1
fc3f2023 00 00000000 80000044 80000048 // sw gp, -64(t5)
ff9ff06f 00 00000000 80000048 80000040 // j pc - 0x8
00001f17 30 80001040 80000040 80000044 // auipc t5, 0x1
fc3f2023 00 00000000 80000044 80000048 // sw gp, -64(t5)
ff9ff06f 00 00000000 80000048 80000040 // j pc - 0x8
00001f17 30 80001040 80000040 80000044 // auipc t5, 0x1
fc3f2023 00 00000000 80000044 80000048 // sw gp, -64(t5)
ff9ff06f 00 00000000 80000048 80000040 // j pc - 0x8
00001f17 30 80001040 80000040 80000044 // auipc t5, 0x1
fc3f2023 00 00000000 80000044 80000048 // sw gp, -64(t5)
ff9ff06f 00 00000000 80000048 80000040 // j pc - 0x8
00001f17 30 80001040 80000040 80000044 // auipc t5, 0x1
fc3f2023 00 00000000 80000044 80000048 // sw gp, -64(t5)
ff9ff06f 00 00000000 80000048 80000040 // j pc - 0x8
00001f17 30 80001040 80000040 80000044 // auipc t5, 0x1
fc3f2023 00 00000000 80000044 80000048 // sw gp, -64(t5)
ff9ff06f 00 00000000 80000048 80000040 // j pc - 0x8
00001f17 30 80001040 80000040 80000044 // auipc t5, 0x1
fc3f2023 00 00000000 80000044 80000048 // sw gp, -64(t5)
ff9ff06f 00 00000000 80000048 80000040 // j pc - 0x8
00001f17 30 80001040 80000040 80000044 // auipc t5, 0x1
fc3f2023 00 00000000 80000044 80000048 // sw gp, -64(t5)
ff9ff06f 00 00000000 80000048 80000040 // j pc - 0x8
00001f17 30 80001040 80000040 80000044 // auipc t5, 0x1
fc3f2023 00 00000000 80000044 80000048 // sw gp, -64(t5)
ff9ff06f 00 00000000 80000048 80000040 // j pc - 0x8
00001f17 30 80001040 80000040 80000044 // auipc t5, 0x1
fc3f2023 00 00000000 80000044 80000048 // sw gp, -64(t5)
ff9ff06f 00 00000000 80000048 80000040 // j pc - 0x8
00001f17 30 80001040 80000040 80000044 // auipc t5, 0x1
fc3f2023 00 00000000 80000044 80000048 // sw gp, -64(t5)
ff9ff06f 00 00000000 80000048 80000040 // j pc - 0x8
00001f17 30 80001040 80000040 80000044 // auipc t5, 0x1
fc3f2023 00 00000000 80000044 80000048 // sw gp, -64(t5)
ff9ff06f 00 00000000 80000048 80000040 // j pc - 0x8
00001f17 30 80001040 80000040 80000044 // auipc t5, 0x1
fc3f2023 00 00000000 80000044 80000048 // sw gp, -64(t5)
ff9ff06f 00 00000000 80000048 80000040 // j pc - 0x8
00001f17 30 80001040 80000040 80000044 // auipc t5, 0x1
fc3f2023 00 00000000 80000044 80000048 // sw gp, -64(t5)
ff9ff06f 00 00000000 80000048 80000040 // j pc - 0x8
00001f17 30 80001040 80000040 80000044 // auipc t5, 0x1
fc3f2023 00 00000000 80000044 80000048 // sw gp, -64(t5)
ff9ff06f 00 00000000 80000048 80000040 // j pc - 0x8
00001f17 30 80001040 80000040 80000044 // auipc t5, 0x1
fc3f2023 00 00000000 80000044 80000048 // sw gp, -64(t5)
ff9ff06f 00 00000000 80000048 80000040 // j pc - 0x8
00001f17 30 80001040 80000040 80000044 // auipc t5, 0x1
fc3f2023 00 00000000 80000044 80000048 // sw gp, -64(t5)
ff9ff06f 00 00000000 80000048 80000040 // j pc - 0x8
00001f17 30 80001040 80000040 80000044 // auipc t5, 0x1
fc3f2023 00 00000000 80000044 80000048 // sw gp, -64(t5)
ff9ff06f 00 00000000 80000048 80000040 // j pc - 0x8
00001f17 30 80001040 80000040 80000044 // auipc t5, 0x1
fc3f2023 00 00000000 80000044 80000048 // sw gp, -64(t5)
ff9ff06f 00 00000000 80000048 80000040 // j pc - 0x8
00001f17 30 80001040 80000040 80000044 // auipc t5, 0x1
fc3f2023 00 00000000 80000044 80000048 // sw gp, -64(t5)
ff9ff06f 00 00000000 80000048 80000040 // j pc - 0x8
00001f17 30 80001040 80000040 80000044 // auipc t5, 0x1
fc3f2023 00 00000000 80000044 80000048 // sw gp, -64(t5)
ff9ff06f 00 00000000 80000048 80000040 // j pc - 0x8
00001f17 30 80001040 80000040 80000044 // auipc t5, 0x1
fc3f2023 00 00000000 80000044 80000048 // sw gp, -64(t5)
ff9ff06f 00 00000000 80000048 80000040 // j pc - 0x8
00001f17 30 80001040 80000040 80000044 // auipc t5, 0x1
fc3f2023 00 00000000 80000044 80000048 // sw gp, -64(t5)
ff9ff06f 00 00000000 80000048 80000040 // j pc - 0x8
00001f17 30 80001040 80000040 80000044 // auipc t5, 0x1
fc3f2023 00 00000000 80000044 80000048 // sw gp, -64(t5)
ff9ff06f 00 00000000 80000048 80000040 // j pc - 0x8
00001f17 30 80001040 80000040 80000044 // auipc t5, 0x1
fc3f2023 00 00000000 80000044 80000048 // sw gp, -64(t5)
ff9ff06f 00 00000000 80000048 80000040 // j pc - 0x8
00001f17 30 80001040 80000040 80000044 // auipc t5, 0x1
fc3f2023 00 00000000 80000044 80000048 // sw gp, -64(t5)
ff9ff06f 00 00000000 80000048 80000040 // j pc - 0x8
00001f17 30 80001040 80000040 80000044 // auipc t5, 0x1
fc3f2023 00 00000000 80000044 80000048 // sw gp, -64(t5)
ff9ff06f 00 00000000 80000048 80000040 // j pc - 0x8
00001f17 30 80001040 80000040 80000044 // auipc t5, 0x1
fc3f2023 00 00000000 80000044 80000048 // sw gp, -64(t5)
ff9ff06f 00 00000000 80000048 80000040 // j pc - 0x8
00001f17 30 80001040 80000040 80000044 // auipc t5, 0x1
fc3f2023 00 00000000 80000044 80000048 // sw gp, -64(t5)
ff9ff06f 00 00000000 80000048 80000040 // j pc - 0x8
00001f17 30 80001040 80000040 80000044 // auipc t5, 0x1
fc3f2023 00 00000000 80000044 80000048 // sw gp, -64(t5)
ff9ff06f 00 00000000 80000048 80000040 // j pc - 0x8
00001f17 30 80001040 80000040 80000044 // auipc t5, 0x1
fc3f2023 00 00000000 80000044 80000048 // sw gp, -64(t5)
ff9ff06f 00 00000000 80000048 80000040 // j pc - 0x8
00001f17 30 80001040 80000040 80000044 // auipc t5, 0x1
fc3f2023 00 00000000 80000044 80000048 // sw gp, -64(t5)
ff9ff06f 00 00000000 80000048 80000040 // j pc - 0x8
00001f17 30 80001040 80000040 80000044 // auipc t5, 0x1
fc3f2023 00 00000000 80000044 80000048 // sw gp, -64(t5)
ff9ff06f 00 00000000 80000048 80000040 // j pc - 0x8
00001f17 30 80001040 80000040 80000044 // auipc t5, 0x1
fc3f2023 00 00000000 80000044 80000048 // sw gp, -64(t5)
ff9ff06f 00 00000000 80000048 80000040 // j pc - 0x8
00001f17 30 80001040 80000040 80000044 // auipc t5, 0x1
fc3f2023 00 00000000 80000044 80000048 // sw gp, -64(t5)
ff9ff06f 00 00000000 80000048 80000040 // j pc - 0x8
00001f17 30 80001040 80000040 80000044 // auipc t5, 0x1
fc3f2023 00 00000000 80000044 80000048 // sw gp, -64(t5)
ff9ff06f 00 00000000 80000048 80000040 // j pc - 0x8
00001f17 30 80001040 80000040 80000044 // auipc t5, 0x1
fc3f2023 00 00000000 80000044 80000048 // sw gp, -64(t5)
ff9ff06f 00 00000000 80000048 80000040 // j pc - 0x8
00001f17 30 80001040 80000040 80000044 // auipc t5, 0x1
fc3f2023 00 00000000 80000044 80000048 // sw gp, -64(t5)
ff9ff06f 00 00000000 80000048 80000040 // j pc - 0x8
00001f17 30 80001040 80000040 80000044 // auipc t5, 0x1
fc3f2023 00 00000000 80000044 80000048 // sw gp, -64(t5)
ff9ff06f 00 00000000 80000048 80000040 // j pc - 0x8
00001f17 30 80001040 80000040 80000044 // auipc t5, 0x1
fc3f2023 00 00000000 80000044 80000048 // sw gp, -64(t5)
ff9ff06f 00 00000000 80000048 80000040 // j pc - 0x8
00001f17 30 80001040 80000040 80000044 // auipc t5, 0x1
fc3f2023 00 00000000 80000044 80000048 // sw gp, -64(t5)
ff9ff06f 00 00000000 80000048 80000040 // j pc - 0x8
00001f17 30 80001040 80000040 80000044 // auipc t5, 0x1
fc3f2023 00 00000000 80000044 80000048 // sw gp, -64(t5)
ff9ff06f 00 00000000 80000048 80000040 // j pc - 0x8
00001f17 30 80001040 80000040 80000044 // auipc t5, 0x1
fc3f2023 00 00000000 80000044 80000048 // sw gp, -64(t5)
ff9ff06f 00 00000000 80000048 80000040 // j pc - 0x8
00001f17 30 80001040 80000040 80000044 // auipc t5, 0x1
fc3f2023 00 00000000 80000044 80000048 // sw gp, -64(t5)
ff9ff06f 00 00000000 80000048 80000040 // j pc - 0x8
00001f17 30 80001040 80000040 80000044 // auipc t5, 0x1
fc3f2023 00 00000000 80000044 80000048 // sw gp, -64(t5)
ff9ff06f 00 00000000 80000048 80000040 // j pc - 0x8
00001f17 30 80001040 80000040 80000044 // auipc t5, 0x1
fc3f2023 00 00000000 80000044 80000048 // sw gp, -64(t5)
ff9ff06f 00 00000000 80000048 80000040 // j pc - 0x8
00001f17 30 80001040 80000040 80000044 // auipc t5, 0x1
fc3f2023 00 00000000 80000044 80000048 // sw gp, -64(t5)
ff9ff06f 00 00000000 80000048 80000040 // j pc - 0x8
00001f17 30 80001040 80000040 80000044 // auipc t5, 0x1
fc3f2023 00 00000000 80000044 80000048 // sw gp, -64(t5)
ff9ff06f 00 00000000 80000048 80000040 // j pc - 0x8
00001f17 30 80001040 80000040 80000044 // auipc t5, 0x1
fc3f2023 00 00000000 80000044 80000048 // sw gp, -64(t5)
ff9ff06f 00 00000000 80000048 80000040 // j pc - 0x8
00001f17 30 80001040 80000040 80000044 // auipc t5, 0x1
fc3f2023 00 00000000 80000044 80000048 // sw gp, -64(t5)
ff9ff06f 00 00000000 80000048 80000040 // j pc - 0x8
00001f17 30 80001040 80000040 80000044 // auipc t5, 0x1
fc3f2023 00 00000000 80000044 80000048 // sw gp, -64(t5)
ff9ff06f 00 00000000 80000048 80000040 // j pc - 0x8
00001f17 30 80001040 80000040 80000044 // auipc t5, 0x1
fc3f2023 00 00000000 80000044 80000048 // sw gp, -64(t5)
ff9ff06f 00 00000000 80000048 80000040 // j pc - 0x8
00001f17 30 80001040 80000040 80000044 // auipc t5, 0x1
fc3f2023 00 00000000 80000044 80000048 // sw gp, -64(t5)
ff9ff06f 00 00000000 80000048 80000040 // j pc - 0x8
00001f17 30 80001040 80000040 80000044 // auipc t5, 0x1
fc3f2023 00 00000000 80000044 80000048 // sw gp, -64(t5)
ff9ff06f 00 00000000 80000048 80000040 // j pc - 0x8
00001f17 30 80001040 80000040 80000044 // auipc t5, 0x1
fc3f2023 00 00000000 80000044 80000048 // sw gp, -64(t5)
ff9ff06f 00 00000000 80000048 80000040 // j pc - 0x8
00001f17 30 80001040 80000040 80000044 // auipc t5, 0x1
fc3f2023 00 00000000 80000044 80000048 // sw gp, -64(t5)
ff9ff06f 00 00000000 80000048 80000040 // j pc - 0x8
00001f17 30 80001040 80000040 80000044 // auipc t5, 0x1
fc3f2023 00 00000000 80000044 80000048 // sw gp, -64(t5)
ff9ff06f 00 00000000 80000048 80000040 // j pc - 0x8
00001f17 30 80001040 80000040 80000044 // auipc t5, 0x1
fc3f2023 00 00000000 80000044 80000048 // sw gp, -64(t5)
ff9ff06f 00 00000000 80000048 80000040 // j pc - 0x8
00001f17 30 80001040 80000040 80000044 // auipc t5, 0x1
fc3f2023 00 00000000 80000044 80000048 // sw gp, -64(t5)
ff9ff06f 00 00000000 80000048 80000040 // j pc - 0x8
00001f17 30 80001040 80000040 80000044 // auipc t5, 0x1
fc3f2023 00 00000000 80000044 80000048 // sw gp, -64(t5)
ff9ff06f 00 00000000 80000048 80000040 // j pc - 0x8
00001f17 30 80001040 80000040 80000044 // auipc t5, 0x1
fc3f2023 00 00000000 80000044 80000048 // sw gp, -64(t5)
ff9ff06f 00 00000000 80000048 80000040 // j pc - 0x8
00001f17 30 80001040 80000040 80000044 // auipc t5, 0x1
fc3f2023 00 00000000 80000044 80000048 // sw gp, -64(t5)
ff9ff06f 00 00000000 80000048 80000040 // j pc - 0x8
00001f17 30 80001040 80000040 80000044 // auipc t5, 0x1
fc3f2023 00 00000000 80000044 80000048 // sw gp, -64(t5)
ff9ff06f 00 00000000 80000048 80000040 // j pc - 0x8
00001f17 30 80001040 80000040 80000044 // auipc t5, 0x1
fc3f2023 00 00000000 80000044 80000048 // sw gp, -64(t5)
ff9ff06f 00 00000000 80000048 80000040 // j pc - 0x8
00001f17 30 80001040 80000040 80000044 // auipc t5, 0x1
fc3f2023 00 00000000 80000044 80000048 // sw gp, -64(t5)
ff9ff06f 00 00000000 80000048 80000040 // j pc - 0x8
00001f17 30 80001040 80000040 80000044 // auipc t5, 0x1
fc3f2023 00 00000000 80000044 80000048 // sw gp, -64(t5)
ff9ff06f 00 00000000 80000048 80000040 // j pc - 0x8
00001f17 30 80001040 80000040 80000044 // auipc t5, 0x1
fc3f2023 00 00000000 80000044 80000048 // sw gp, -64(t5)
ff9ff06f 00 00000000 80000048 80000040 // j pc - 0x8
00001f17 30 80001040 80000040 80000044 // auipc t5, 0x1
fc3f2023 00 00000000 80000044 80000048 // sw gp, -64(t5)
ff9ff06f 00 00000000 80000048 80000040 // j pc - 0x8
00001f17 30 80001040 80000040 80000044 // auipc t5, 0x1
fc3f2023 00 00000000 80000044 80000048 // sw gp, -64(t5)
ff9ff06f 00 00000000 80000048 80000040 // j pc - 0x8
00001f17 30 80001040 80000040 80000044 // auipc t5, 0x1
fc3f2023 00 00000000 80000044 80000048 // sw gp, -64(t5)
ff9ff06f 00 00000000 80000048 80000040 // j pc - 0x8
00001f17 30 80001040 80000040 80000044 // auipc t5, 0x1
fc3f2023 00 00000000 80000044 80000048 // sw gp, -64(t5)
ff9ff06f 00 00000000 80000048 80000040 // j pc - 0x8
00001f17 30 80001040 80000040 80000044 // auipc t5, 0x1
fc3f2023 00 00000000 80000044 80000048 // sw gp, -64(t5)
ff9ff06f 00 00000000 80000048 80000040 // j pc - 0x8
00001f17 30 80001040 80000040 80000044 // auipc t5, 0x1
fc3f2023 00 00000000 80000044 80000048 // sw gp, -64(t5)
ff9ff06f 00 00000000 80000048 80000040 // j pc - 0x8
00001f17 30 80001040 80000040 80000044 // auipc t5, 0x1
fc3f2023 00 00000000 80000044 80000048 // sw gp, -64(t5)
ff9ff06f 00 00000000 80000048 80000040 // j pc - 0x8
00001f17 30 80001040 80000040 80000044 // auipc t5, 0x1
fc3f2023 00 00000000 80000044 80000048 // sw gp, -64(t5)
ff9ff06f 00 00000000 80000048 80000040 // j pc - 0x8
00001f17 30 80001040 80000040 80000044 // auipc t5, 0x1
fc3f2023 00 00000000 80000044 80000048 // sw gp, -64(t5)
ff9ff06f 00 00000000 80000048 80000040 // j pc - 0x8
00001f17 30 80001040 80000040 80000044 // auipc t5, 0x1
fc3f2023 00 00000000 80000044 80000048 // sw gp, -64(t5)
ff9ff06f 00 00000000 80000048 80000040 // j pc - 0x8
00001f17 30 80001040 80000040 80000044 // auipc t5, 0x1
fc3f2023 00 00000000 80000044 80000048 // sw gp, -64(t5)
ff9ff06f 00 00000000 80000048 80000040 // j pc - 0x8
00001f17 30 80001040 80000040 80000044 // auipc t5, 0x1
fc3f2023 00 00000000 80000044 80000048 // sw gp, -64(t5)
ff9ff06f 00 00000000 80000048 80000040 // j pc - 0x8
00001f17 30 80001040 80000040 80000044 // auipc t5, 0x1
fc3f2023 00 00000000 80000044 80000048 // sw gp, -64(t5)
ff9ff06f 00 00000000 80000048 80000040 // j pc - 0x8
00001f17 30 80001040 80000040 80000044 // auipc t5, 0x1
fc3f2023 00 00000000 80000044 80000048 // sw gp, -64(t5)
ff9ff06f 00 00000000 80000048 80000040 // j pc - 0x8
00001f17 30 80001040 80000040 80000044 // auipc t5, 0x1
fc3f2023 00 00000000 80000044 80000048 // sw gp, -64(t5)
ff9ff06f 00 00000000 80000048 80000040 // j pc - 0x8
00001f17 30 80001040 80000040 80000044 // auipc t5, 0x1
fc3f2023 00 00000000 80000044 80000048 // sw gp, -64(t5)
ff9ff06f 00 00000000 80000048 80000040 // j pc - 0x8
00001f17 30 80001040 80000040 80000044 // auipc t5, 0x1
fc3f2023 00 00000000 80000044 80000048 // sw gp, -64(t5)
ff9ff06f 00 00000000 80000048 80000040 // j pc - 0x8
00001f17 30 80001040 80000040 80000044 // auipc t5, 0x1
fc3f2023 00 00000000 80000044 80000048 // sw gp, -64(t5)
ff9ff06f 00 00000000 80000048 80000040 // j pc - 0x8
00001f17 30 80001040 80000040 80000044 // auipc t5, 0x1
fc3f2023 00 00000000 80000044 80000048 // sw gp, -64(t5)
ff9ff06f 00 00000000 80000048 80000040 // j pc - 0x8
00001f17 30 80001040 80000040 80000044 // auipc t5, 0x1
fc3f2023 00 00000000 80000044 80000048 // sw gp, -64(t5)
ff9ff06f 00 00000000 80000048 80000040 // j pc - 0x8
00001f17 30 80001040 80000040 80000044 // auipc t5, 0x1
fc3f2023 00 00000000 80000044 80000048 // sw gp, -64(t5)
ff9ff06f 00 00000000 80000048 80000040 // j pc - 0x8
00001f17 30 80001040 80000040 80000044 // auipc t5, 0x1
fc3f2023 00 00000000 80000044 80000048 // sw gp, -64(t5)
ff9ff06f 00 00000000 80000048 80000040 // j pc - 0x8
00001f17 30 80001040 80000040 80000044 // auipc t5, 0x1
fc3f2023 00 00000000 80000044 80000048 // sw gp, -64(t5)
ff9ff06f 00 00000000 80000048 80000040 // j pc - 0x8
00001f17 30 80001040 80000040 80000044 // auipc t5, 0x1
fc3f2023 00 00000000 80000044 80000048 // sw gp, -64(t5)
ff9ff06f 00 00000000 80000048 80000040 // j pc - 0x8
00001f17 30 80001040 80000040 80000044 // auipc t5, 0x1
fc3f2023 00 00000000 80000044 80000048 // sw gp, -64(t5)
ff9ff06f 00 00000000 80000048 80000040 // j pc - 0x8
00001f17 30 80001040 80000040 80000044 // auipc t5, 0x1
fc3f2023 00 00000000 80000044 80000048 // sw gp, -64(t5)
ff9ff06f 00 00000000 80000048 80000040 // j pc - 0x8
00001f17 30 80001040 80000040 80000044 // auipc t5, 0x1
fc3f2023 00 00000000 80000044 80000048 // sw gp, -64(t5)
ff9ff06f 00 00000000 80000048 80000040 // j pc - 0x8
00001f17 30 80001040 80000040 80000044 // auipc t5, 0x1
fc3f2023 00 00000000 80000044 80000048 // sw gp, -64(t5)
ff9ff06f 00 00000000 80000048 80000040 // j pc - 0x8
00001f17 30 80001040 80000040 80000044 // auipc t5, 0x1
fc3f2023 00 00000000 80000044 80000048 // sw gp, -64(t5)
ff9ff06f 00 00000000 80000048 80000040 // j pc - 0x8
00001f17 30 80001040 80000040 80000044 // auipc t5, 0x1
fc3f2023 00 00000000 80000044 80000048 // sw gp, -64(t5)
ff9ff06f 00 00000000 80000048 80000040 // j pc - 0x8
00001f17 30 80001040 80000040 80000044 // auipc t5, 0x1
fc3f2023 00 00000000 80000044 80000048 // sw gp, -64(t5)
ff9ff06f 00 00000000 80000048 80000040 // j pc - 0x8
00001f17 30 80001040 80000040 80000044 // auipc t5, 0x1
fc3f2023 00 00000000 80000044 80000048 // sw gp, -64(t5)
ff9ff06f 00 00000000 80000048 80000040 // j pc - 0x8
00001f17 30 80001040 80000040 80000044 // auipc t5, 0x1
fc3f2023 00 00000000 80000044 80000048 // sw gp, -64(t5)
ff9ff06f 00 00000000 80000048 80000040 // j pc - 0x8
00001f17 30 80001040 80000040 80000044 // auipc t5, 0x1
fc3f2023 00 00000000 80000044 80000048 // sw gp, -64(t5)
ff9ff06f 00 00000000 80000048 80000040 // j pc - 0x8
00001f17 30 80001040 80000040 80000044 // auipc t5, 0x1
fc3f2023 00 00000000 80000044 80000048 // sw gp, -64(t5)
ff9ff06f 00 00000000 80000048 80000040 // j pc - 0x8
00001f17 30 80001040 80000040 80000044 // auipc t5, 0x1
fc3f2023 00 00000000 80000044 80000048 // sw gp, -64(t5)
ff9ff06f 00 00000000 80000048 80000040 // j pc - 0x8
00001f17 30 80001040 80000040 80000044 // auipc t5, 0x1
fc3f2023 00 00000000 80000044 80000048 // sw gp, -64(t5)
ff9ff06f 00 00000000 80000048 80000040 // j pc - 0x8
00001f17 30 80001040 80000040 80000044 // auipc t5, 0x1
fc3f2023 00 00000000 80000044 80000048 // sw gp, -64(t5)
ff9ff06f 00 00000000 80000048 80000040 // j pc - 0x8
00001f17 30 80001040 80000040 80000044 // auipc t5, 0x1
fc3f2023 00 00000000 80000044 80000048 // sw gp, -64(t5)
ff9ff06f 00 00000000 80000048 80000040 // j pc - 0x8
00001f17 30 80001040 80000040 80000044 // auipc t5, 0x1
fc3f2023 00 00000000 80000044 80000048 // sw gp, -64(t5)
ff9ff06f 00 00000000 80000048 80000040 // j pc - 0x8
00001f17 30 80001040 80000040 80000044 // auipc t5, 0x1
fc3f2023 00 00000000 80000044 80000048 // sw gp, -64(t5)
ff9ff06f 00 00000000 80000048 80000040 // j pc - 0x8
00001f17 30 80001040 80000040 80000044 // auipc t5, 0x1
fc3f2023 00 00000000 80000044 80000048 // sw gp, -64(t5)
ff9ff06f 00 00000000 80000048 80000040 // j pc - 0x8
00001f17 30 80001040 80000040 80000044 // auipc t5, 0x1
fc3f2023 00 00000000 80000044 80000048 // sw gp, -64(t5)
ff9ff06f 00 00000000 80000048 80000040 // j pc - 0x8
00001f17 30 80001040 80000040 80000044 // auipc t5, 0x1
fc3f2023 00 00000000 80000044 80000048 // sw gp, -64(t5)
ff9ff06f 00 00000000 80000048 80000040 // j pc - 0x8
00001f17 30 80001040 80000040 80000044 // auipc t5, 0x1
fc3f2023 00 00000000 80000044 80000048 // sw gp, -64(t5)
ff9ff06f 00 00000000 80000048 80000040 // j pc - 0x8
00001f17 30 80001040 80000040 80000044 // auipc t5, 0x1
fc3f2023 00 00000000 80000044 80000048 // sw gp, -64(t5)
ff9ff06f 00 00000000 80000048 80000040 // j pc - 0x8
00001f17 30 80001040 80000040 80000044 // auipc t5, 0x1
fc3f2023 00 00000000 80000044 80000048 // sw gp, -64(t5)
ff9ff06f 00 00000000 80000048 80000040 // j pc - 0x8
00001f17 30 80001040 80000040 80000044 // auipc t5, 0x1
fc3f2023 00 00000000 80000044 80000048 // sw gp, -64(t5)
ff9ff06f 00 00000000 80000048 80000040 // j pc - 0x8
00001f17 30 80001040 80000040 80000044 // auipc t5, 0x1
fc3f2023 00 00000000 80000044 80000048 // sw gp, -64(t5)
ff9ff06f 00 00000000 80000048 80000040 // j pc - 0x8
00001f17 30 80001040 80000040 80000044 // auipc t5, 0x1
fc3f2023 00 00000000 80000044 80000048 // sw gp, -64(t5)
ff9ff06f 00 00000000 80000048 80000040 // j pc - 0x8
00001f17 30 80001040 80000040 80000044 // auipc t5, 0x1
fc3f2023 00 00000000 80000044 80000048 // sw gp, -64(t5)
ff9ff06f 00 00000000 80000048 80000040 // j pc - 0x8
00001f17 30 80001040 80000040 80000044 // auipc t5, 0x1
fc3f2023 00 00000000 80000044 80000048 // sw gp, -64(t5)
ff9ff06f 00 00000000 80000048 80000040 // j pc - 0x8
00001f17 30 80001040 80000040 80000044 // auipc t5, 0x1
fc3f2023 00 00000000 80000044 80000048 // sw gp, -64(t5)
ff9ff06f 00 00000000 80000048 80000040 // j pc - 0x8
00001f17 30 80001040 80000040 80000044 // auipc t5, 0x1
fc3f2023 00 00000000 80000044 80000048 // sw gp, -64(t5)
ff9ff06f 00 00000000 80000048 80000040 // j pc - 0x8
00001f17 30 80001040 80000040 80000044 // auipc t5, 0x1
fc3f2023 00 00000000 80000044 80000048 // sw gp, -64(t5)
ff9ff06f 00 00000000 80000048 80000040 // j pc - 0x8
00001f17 30 80001040 80000040 80000044 // auipc t5, 0x1
fc3f2023 00 00000000 80000044 80000048 // sw gp, -64(t5)
ff9ff06f 00 00000000 80000048 80000040 // j pc - 0x8
00001f17 30 80001040 80000040 80000044 // auipc t5, 0x1
fc3f2023 00 00000000 80000044 80000048 // sw gp, -64(t5)
ff9ff06f 00 00000000 80000048 80000040 // j pc - 0x8
00001f17 30 80001040 80000040 80000044 // auipc t5, 0x1
fc3f2023 00 00000000 80000044 80000048 // sw gp, -64(t5)
ff9ff06f 00 00000000 80000048 80000040 // j pc - 0x8
00001f17 30 80001040 80000040 80000044 // auipc t5, 0x1
fc3f2023 00 00000000 80000044 80000048 // sw gp, -64(t5)
ff9ff06f 00 00000000 80000048 80000040 // j pc - 0x8
00001f17 30 80001040 80000040 80000044 // auipc t5, 0x1
fc3f2023 00 00000000 80000044 80000048 // sw gp, -64(t5)
ff9ff06f 00 00000000 80000048 80000040 // j pc - 0x8
00001f17 30 80001040 80000040 80000044 // auipc t5, 0x1
fc3f2023 00 00000000 80000044 80000048 // sw gp, -64(t5)
ff9ff06f 00 00000000 80000048 80000040 // j pc - 0x8
00001f17 30 80001040 80000040 80000044 // auipc t5, 0x1
fc3f2023 00 00000000 80000044 80000048 // sw gp, -64(t5)
ff9ff06f 00 00000000 80000048 80000040 // j pc - 0x8
00001f17 30 80001040 80000040 80000044 // auipc t5, 0x1
fc3f2023 00 00000000 80000044 80000048 // sw gp, -64(t5)
ff9ff06f 00 00000000 80000048 80000040 // j pc - 0x8
00001f17 30 80001040 80000040 80000044 // auipc t5, 0x1
fc3f2023 00 00000000 80000044 80000048 // sw gp, -64(t5)
ff9ff06f 00 00000000 80000048 80000040 // j pc - 0x8
00001f17 30 80001040 80000040 80000044 // auipc t5, 0x1
fc3f2023 00 00000000 80000044 80000048 // sw gp, -64(t5)
ff9ff06f 00 00000000 80000048 80000040 // j pc - 0x8
00001f17 30 80001040 80000040 80000044 // auipc t5, 0x1
fc3f2023 00 00000000 80000044 80000048 // sw gp, -64(t5)
ff9ff06f 00 00000000 80000048 80000040 // j pc - 0x8
00001f17 30 80001040 80000040 80000044 // auipc t5, 0x1
fc3f2023 00 00000000 80000044 80000048 // sw gp, -64(t5)
ff9ff06f 00 00000000 80000048 80000040 // j pc - 0x8
00001f17 30 80001040 80000040 80000044 // auipc t5, 0x1
fc3f2023 00 00000000 80000044 80000048 // sw gp, -64(t5)
ff9ff06f 00 00000000 80000048 80000040 // j pc - 0x8
00001f17 30 80001040 80000040 80000044 // auipc t5, 0x1
fc3f2023 00 00000000 80000044 80000048 // sw gp, -64(t5)
ff9ff06f 00 00000000 80000048 80000040 // j pc - 0x8
00001f17 30 80001040 80000040 80000044 // auipc t5, 0x1
fc3f2023 00 00000000 80000044 80000048 // sw gp, -64(t5)
ff9ff06f 00 00000000 80000048 80000040 // j pc - 0x8
00001f17 30 80001040 80000040 80000044 // auipc t5, 0x1
fc3f2023 00 00000000 80000044 80000048 // sw gp, -64(t5)
ff9ff06f 00 00000000 80000048 80000040 // j pc - 0x8
00001f17 30 80001040 80000040 80000044 // auipc t5, 0x1
fc3f2023 00 00000000 80000044 80000048 // sw gp, -64(t5)
ff9ff06f 00 00000000 80000048 80000040 // j pc - 0x8
00001f17 30 80001040 80000040 80000044 // auipc t5, 0x1
fc3f2023 00 00000000 80000044 80000048 // sw gp, -64(t5)
ff9ff06f 00 00000000 80000048 80000040 // j pc - 0x8
00001f17 30 80001040 80000040 80000044 // auipc t5, 0x1
fc3f2023 00 00000000 80000044 80000048 // sw gp, -64(t5)
ff9ff06f 00 00000000 80000048 80000040 // j pc - 0x8
00001f17 30 80001040 80000040 80000044 // auipc t5, 0x1
fc3f2023 00 00000000 80000044 80000048 // sw gp, -64(t5)
ff9ff06f 00 00000000 80000048 80000040 // j pc - 0x8
00001f17 30 80001040 80000040 80000044 // auipc t5, 0x1
fc3f2023 00 00000000 80000044 80000048 // sw gp, -64(t5)
ff9ff06f 00 00000000 80000048 80000040 // j pc - 0x8
00001f17 30 80001040 80000040 80000044 // auipc t5, 0x1
fc3f2023 00 00000000 80000044 80000048 // sw gp, -64(t5)
ff9ff06f 00 00000000 80000048 80000040 // j pc - 0x8
00001f17 30 80001040 80000040 80000044 // auipc t5, 0x1
fc3f2023 00 00000000 80000044 80000048 // sw gp, -64(t5)
ff9ff06f 00 00000000 80000048 80000040 // j pc - 0x8
00001f17 30 80001040 80000040 80000044 // auipc t5, 0x1
fc3f2023 00 00000000 80000044 80000048 // sw gp, -64(t5)
ff9ff06f 00 00000000 80000048 80000040 // j pc - 0x8
00001f17 30 80001040 80000040 80000044 // auipc t5, 0x1
fc3f2023 00 00000000 80000044 80000048 // sw gp, -64(t5)
ff9ff06f 00 00000000 80000048 80000040 // j pc - 0x8
00001f17 30 80001040 80000040 80000044 // auipc t5, 0x1
fc3f2023 00 00000000 80000044 80000048 // sw gp, -64(t5)
ff9ff06f 00 00000000 80000048 80000040 // j pc - 0x8
00001f17 30 80001040 80000040 80000044 // auipc t5, 0x1
fc3f2023 00 00000000 80000044 80000048 // sw gp, -64(t5)
ff9ff06f 00 00000000 80000048 80000040 // j pc - 0x8
00001f17 30 80001040 80000040 80000044 // auipc t5, 0x1
fc3f2023 00 00000000 80000044 80000048 // sw gp, -64(t5)
ff9ff06f 00 00000000 80000048 80000040 // j pc - 0x8
00001f17 30 80001040 80000040 80000044 // auipc t5, 0x1
fc3f2023 00 00000000 80000044 80000048 // sw gp, -64(t5)
ff9ff06f 00 00000000 80000048 80000040 // j pc - 0x8
00001f17 30 80001040 80000040 80000044 // auipc t5, 0x1
fc3f2023 00 00000000 80000044 80000048 // sw gp, -64(t5)
ff9ff06f 00 00000000 80000048 80000040 // j pc - 0x8
00001f17 30 80001040 80000040 80000044 // auipc t5, 0x1
fc3f2023 00 00000000 80000044 80000048 // sw gp, -64(t5)
ff9ff06f 00 00000000 80000048 80000040 // j pc - 0x8
00001f17 30 80001040 80000040 80000044 // auipc t5, 0x1
fc3f2023 00 00000000 80000044 80000048 // sw gp, -64(t5)
ff9ff06f 00 00000000 80000048 80000040 // j pc - 0x8
00001f17 30 80001040 80000040 80000044 // auipc t5, 0x1
fc3f2023 00 00000000 80000044 80000048 // sw gp, -64(t5)
ff9ff06f 00 00000000 80000048 80000040 // j pc - 0x8
00001f17 30 80001040 80000040 80000044 // auipc t5, 0x1
fc3f2023 00 00000000 80000044 80000048 // sw gp, -64(t5)
ff9ff06f 00 00000000 80000048 80000040 // j pc - 0x8
00001f17 30 80001040 80000040 80000044 // auipc t5, 0x1
fc3f2023 00 00000000 80000044 80000048 // sw gp, -64(t5)
ff9ff06f 00 00000000 80000048 80000040 // j pc - 0x8
00001f17 30 80001040 80000040 80000044 // auipc t5, 0x1
fc3f2023 00 00000000 80000044 80000048 // sw gp, -64(t5)
ff9ff06f 00 00000000 80000048 80000040 // j pc - 0x8
00001f17 30 80001040 80000040 80000044 // auipc t5, 0x1
fc3f2023 00 00000000 80000044 80000048 // sw gp, -64(t5)
ff9ff06f 00 00000000 80000048 80000040 // j pc - 0x8
00001f17 30 80001040 80000040 80000044 // auipc t5, 0x1
fc3f2023 00 00000000 80000044 80000048 // sw gp, -64(t5)
ff9ff06f 00 00000000 80000048 80000040 // j pc - 0x8
00001f17 30 80001040 80000040 80000044 // auipc t5, 0x1
fc3f2023 00 00000000 80000044 80000048 // sw gp, -64(t5)
ff9ff06f 00 00000000 80000048 80000040 // j pc - 0x8
00001f17 30 80001040 80000040 80000044 // auipc t5, 0x1
fc3f2023 00 00000000 80000044 80000048 // sw gp, -64(t5)
ff9ff06f 00 00000000 80000048 80000040 // j pc - 0x8
00001f17 30 80001040 80000040 80000044 // auipc t5, 0x1
fc3f2023 00 00000000 80000044 80000048 // sw gp, -64(t5)
ff9ff06f 00 00000000 80000048 80000040 // j pc - 0x8
00001f17 30 80001040 80000040 80000044 // auipc t5, 0x1
fc3f2023 00 00000000 80000044 80000048 // sw gp, -64(t5)
ff9ff06f 00 00000000 80000048 80000040 // j pc - 0x8
00001f17 30 80001040 80000040 80000044 // auipc t5, 0x1
fc3f2023 00 00000000 80000044 80000048 // sw gp, -64(t5)
ff9ff06f 00 00000000 80000048 80000040 // j pc - 0x8
00001f17 30 80001040 80000040 80000044 // auipc t5, 0x1
fc3f2023 00 00000000 80000044 80000048 // sw gp, -64(t5)
ff9ff06f 00 00000000 80000048 80000040 // j pc - 0x8
00001f17 30 80001040 80000040 80000044 // auipc t5, 0x1
fc3f2023 00 00000000 80000044 80000048 // sw gp, -64(t5)
ff9ff06f 00 00000000 80000048 80000040 // j pc - 0x8
00001f17 30 80001040 80000040 80000044 // auipc t5, 0x1
fc3f2023 00 00000000 80000044 80000048 // sw gp, -64(t5)
ff9ff06f 00 00000000 80000048 80000040 // j pc - 0x8
00001f17 30 80001040 80000040 80000044 // auipc t5, 0x1
fc3f2023 00 00000000 80000044 80000048 // sw gp, -64(t5)
ff9ff06f 00 00000000 80000048 80000040 // j pc - 0x8
00001f17 30 80001040 80000040 80000044 // auipc t5, 0x1
fc3f2023 00 00000000 80000044 80000048 // sw gp, -64(t5)
ff9ff06f 00 00000000 80000048 80000040 // j pc - 0x8
00001f17 30 80001040 80000040 80000044 // auipc t5, 0x1
fc3f2023 00 00000000 80000044 80000048 // sw gp, -64(t5)
ff9ff06f 00 00000000 80000048 80000040 // j pc - 0x8
00001f17 30 80001040 80000040 80000044 // auipc t5, 0x1
fc3f2023 00 00000000 80000044 80000048 // sw gp, -64(t5)
ff9ff06f 00 00000000 80000048 80000040 // j pc - 0x8
00001f17 30 80001040 80000040 80000044 // auipc t5, 0x1
fc3f2023 00 00000000 80000044 80000048 // sw gp, -64(t5)
ff9ff06f 00 00000000 80000048 80000040 // j pc - 0x8
00001f17 30 80001040 80000040 80000044 // auipc t5, 0x1
fc3f2023 00 00000000 80000044 80000048 // sw gp, -64(t5)
ff9ff06f 00 00000000 80000048 80000040 // j pc - 0x8
00001f17 30 80001040 80000040 80000044 // auipc t5, 0x1
fc3f2023 00 00000000 80000044 80000048 // sw gp, -64(t5)
ff9ff06f 00 00000000 80000048 80000040 // j pc - 0x8
00001f17 30 80001040 80000040 80000044 // auipc t5, 0x1
fc3f2023 00 00000000 80000044 80000048 // sw gp, -64(t5)
ff9ff06f 00 00000000 80000048 80000040 // j pc - 0x8
00001f17 30 80001040 80000040 80000044 // auipc t5, 0x1
fc3f2023 00 00000000 80000044 80000048 // sw gp, -64(t5)
ff9ff06f 00 00000000 80000048 80000040 // j pc - 0x8
00001f17 30 80001040 80000040 80000044 // auipc t5, 0x1
fc3f2023 00 00000000 80000044 80000048 // sw gp, -64(t5)
ff9ff06f 00 00000000 80000048 80000040 // j pc - 0x8
00001f17 30 80001040 80000040 80000044 // auipc t5, 0x1
fc3f2023 00 00000000 80000044 80000048 // sw gp, -64(t5)
ff9ff06f 00 00000000 80000048 80000040 // j pc - 0x8
00001f17 30 80001040 80000040 80000044 // auipc t5, 0x1
fc3f2023 00 00000000 80000044 80000048 // sw gp, -64(t5)
ff9ff06f 00 00000000 80000048 80000040 // j pc - 0x8
00001f17 30 80001040 80000040 80000044 // auipc t5, 0x1
fc3f2023 00 00000000 80000044 80000048 // sw gp, -64(t5)
ff9ff06f 00 00000000 80000048 80000040 // j pc - 0x8
00001f17 30 80001040 80000040 80000044 // auipc t5, 0x1
fc3f2023 00 00000000 80000044 80000048 // sw gp, -64(t5)
ff9ff06f 00 00000000 80000048 80000040 // j pc - 0x8
00001f17 30 80001040 80000040 80000044 // auipc t5, 0x1
fc3f2023 00 00000000 80000044 80000048 // sw gp, -64(t5)
ff9ff06f 00 00000000 80000048 80000040 // j pc - 0x8
00001f17 30 80001040 80000040 80000044 // auipc t5, 0x1
fc3f2023 00 00000000 80000044 80000048 // sw gp, -64(t5)
ff9ff06f 00 00000000 80000048 80000040 // j pc - 0x8
00001f17 30 80001040 80000040 80000044 // auipc t5, 0x1
fc3f2023 00 00000000 80000044 80000048 // sw gp, -64(t5)
ff9ff06f 00 00000000 80000048 80000040 // j pc - 0x8
00001f17 30 80001040 80000040 80000044 // auipc t5, 0x1
fc3f2023 00 00000000 80000044 80000048 // sw gp, -64(t5)
ff9ff06f 00 00000000 80000048 80000040 // j pc - 0x8
00001f17 30 80001040 80000040 80000044 // auipc t5, 0x1
fc3f2023 00 00000000 80000044 80000048 // sw gp, -64(t5)
ff9ff06f 00 00000000 80000048 80000040 // j pc - 0x8
00001f17 30 80001040 80000040 80000044 // auipc t5, 0x1
fc3f2023 00 00000000 80000044 80000048 // sw gp, -64(t5)
ff9ff06f 00 00000000 80000048 80000040 // j pc - 0x8
00001f17 30 80001040 80000040 80000044 // auipc t5, 0x1
fc3f2023 00 00000000 80000044 80000048 // sw gp, -64(t5)
ff9ff06f 00 00000000 80000048 80000040 // j pc - 0x8
00001f17 30 80001040 80000040 80000044 // auipc t5, 0x1
fc3f2023 00 00000000 80000044 80000048 // sw gp, -64(t5)
ff9ff06f 00 00000000 80000048 80000040 // j pc - 0x8
00001f17 30 80001040 80000040 80000044 // auipc t5, 0x1
fc3f2023 00 00000000 80000044 80000048 // sw gp, -64(t5)
ff9ff06f 00 00000000 80000048 80000040 // j pc - 0x8
00001f17 30 80001040 80000040 80000044 // auipc t5, 0x1
fc3f2023 00 00000000 80000044 80000048 // sw gp, -64(t5)
ff9ff06f 00 00000000 80000048 80000040 // j pc - 0x8
00001f17 30 80001040 80000040 80000044 // auipc t5, 0x1
fc3f2023 00 00000000 80000044 80000048 // sw gp, -64(t5)
ff9ff06f 00 00000000 80000048 80000040 // j pc - 0x8
00001f17 30 80001040 80000040 80000044 // auipc t5, 0x1
fc3f2023 00 00000000 80000044 80000048 // sw gp, -64(t5)
ff9ff06f 00 00000000 80000048 80000040 // j pc - 0x8
00001f17 30 80001040 80000040 80000044 // auipc t5, 0x1
fc3f2023 00 00000000 80000044 80000048 // sw gp, -64(t5)
ff9ff06f 00 00000000 80000048 80000040 // j pc - 0x8
00001f17 30 80001040 80000040 80000044 // auipc t5, 0x1
fc3f2023 00 00000000 80000044 80000048 // sw gp, -64(t5)
ff9ff06f 00 00000000 80000048 80000040 // j pc - 0x8
00001f17 30 80001040 80000040 80000044 // auipc t5, 0x1
fc3f2023 00 00000000 80000044 80000048 // sw gp, -64(t5)
ff9ff06f 00 00000000 80000048 80000040 // j pc - 0x8
00001f17 30 80001040 80000040 80000044 // auipc t5, 0x1
fc3f2023 00 00000000 80000044 80000048 // sw gp, -64(t5)
ff9ff06f 00 00000000 80000048 80000040 // j pc - 0x8
00001f17 30 80001040 80000040 80000044 // auipc t5, 0x1
fc3f2023 00 00000000 80000044 80000048 // sw gp, -64(t5)
ff9ff06f 00 00000000 80000048 80000040 // j pc - 0x8
00001f17 30 80001040 80000040 80000044 // auipc t5, 0x1
fc3f2023 00 00000000 80000044 80000048 // sw gp, -64(t5)
ff9ff06f 00 00000000 80000048 80000040 // j pc - 0x8
00001f17 30 80001040 80000040 80000044 // auipc t5, 0x1
fc3f2023 00 00000000 80000044 80000048 // sw gp, -64(t5)
ff9ff06f 00 00000000 80000048 80000040 // j pc - 0x8
00001f17 30 80001040 80000040 80000044 // auipc t5, 0x1
fc3f2023 00 00000000 80000044 80000048 // sw gp, -64(t5)
ff9ff06f 00 00000000 80000048 80000040 // j pc - 0x8
00001f17 30 80001040 80000040 80000044 // auipc t5, 0x1
fc3f2023 00 00000000 80000044 80000048 // sw gp, -64(t5)
ff9ff06f 00 00000000 80000048 80000040 // j pc - 0x8
00001f17 30 80001040 80000040 80000044 // auipc t5, 0x1
fc3f2023 00 00000000 80000044 80000048 // sw gp, -64(t5)
ff9ff06f 00 00000000 80000048 80000040 // j pc - 0x8
00001f17 30 80001040 80000040 80000044 // auipc t5, 0x1
fc3f2023 00 00000000 80000044 80000048 // sw gp, -64(t5)
ff9ff06f 00 00000000 80000048 80000040 // j pc - 0x8
00001f17 30 80001040 80000040 80000044 // auipc t5, 0x1
fc3f2023 00 00000000 80000044 80000048 // sw gp, -64(t5)
ff9ff06f 00 00000000 80000048 80000040 // j pc - 0x8
00001f17 30 80001040 80000040 80000044 // auipc t5, 0x1
fc3f2023 00 00000000 80000044 80000048 // sw gp, -64(t5)
ff9ff06f 00 00000000 80000048 80000040 // j pc - 0x8
00001f17 30 80001040 80000040 80000044 // auipc t5, 0x1
fc3f2023 00 00000000 80000044 80000048 // sw gp, -64(t5)
ff9ff06f 00 00000000 80000048 80000040 // j pc - 0x8
00001f17 30 80001040 80000040 80000044 // auipc t5, 0x1
fc3f2023 00 00000000 80000044 80000048 // sw gp, -64(t5)
ff9ff06f 00 00000000 80000048 80000040 // j pc - 0x8
00001f17 30 80001040 80000040 80000044 // auipc t5, 0x1
fc3f2023 00 00000000 80000044 80000048 // sw gp, -64(t5)
ff9ff06f 00 00000000 80000048 80000040 // j pc - 0x8
00001f17 30 80001040 80000040 80000044 // auipc t5, 0x1
fc3f2023 00 00000000 80000044 80000048 // sw gp, -64(t5)
ff9ff06f 00 00000000 80000048 80000040 // j pc - 0x8
00001f17 30 80001040 80000040 80000044 // auipc t5, 0x1
fc3f2023 00 00000000 80000044 80000048 // sw gp, -64(t5)
ff9ff06f 00 00000000 80000048 80000040 // j pc - 0x8
00001f17 30 80001040 80000040 80000044 // auipc t5, 0x1
fc3f2023 00 00000000 80000044 80000048 // sw gp, -64(t5)
ff9ff06f 00 00000000 80000048 80000040 // j pc - 0x8
00001f17 30 80001040 80000040 80000044 // auipc t5, 0x1
fc3f2023 00 00000000 80000044 80000048 // sw gp, -64(t5)
ff9ff06f 00 00000000 80000048 80000040 // j pc - 0x8
00001f17 30 80001040 80000040 80000044 // auipc t5, 0x1
fc3f2023 00 00000000 80000044 80000048 // sw gp, -64(t5)
ff9ff06f 00 00000000 80000048 80000040 // j pc - 0x8
00001f17 30 80001040 80000040 80000044 // auipc t5, 0x1
fc3f2023 00 00000000 80000044 80000048 // sw gp, -64(t5)
ff9ff06f 00 00000000 80000048 80000040 // j pc - 0x8
00001f17 30 80001040 80000040 80000044 // auipc t5, 0x1
fc3f2023 00 00000000 80000044 80000048 // sw gp, -64(t5)
ff9ff06f 00 00000000 80000048 80000040 // j pc - 0x8
00001f17 30 80001040 80000040 80000044 // auipc t5, 0x1
fc3f2023 00 00000000 80000044 80000048 // sw gp, -64(t5)
ff9ff06f 00 00000000 80000048 80000040 // j pc - 0x8
00001f17 30 80001040 80000040 80000044 // auipc t5, 0x1
fc3f2023 00 00000000 80000044 80000048 // sw gp, -64(t5)
ff9ff06f 00 00000000 80000048 80000040 // j pc - 0x8
00001f17 30 80001040 80000040 80000044 // auipc t5, 0x1
fc3f2023 00 00000000 80000044 80000048 // sw gp, -64(t5)
ff9ff06f 00 00000000 80000048 80000040 // j pc - 0x8
00001f17 30 80001040 80000040 80000044 // auipc t5, 0x1
fc3f2023 00 00000000 80000044 80000048 // sw gp, -64(t5)
ff9ff06f 00 00000000 80000048 80000040 // j pc - 0x8
00001f17 30 80001040 80000040 80000044 // auipc t5, 0x1
fc3f2023 00 00000000 80000044 80000048 // sw gp, -64(t5)
ff9ff06f 00 00000000 80000048 80000040 // j pc - 0x8
00001f17 30 80001040 80000040 80000044 // auipc t5, 0x1
fc3f2023 00 00000000 80000044 80000048 // sw gp, -64(t5)
ff9ff06f 00 00000000 80000048 80000040 // j pc - 0x8
00001f17 30 80001040 80000040 80000044 // auipc t5, 0x1
fc3f2023 00 00000000 80000044 80000048 // sw gp, -64(t5)
ff9ff06f 00 00000000 80000048 80000040 // j pc - 0x8
00001f17 30 80001040 80000040 80000044 // auipc t5, 0x1
fc3f2023 00 00000000 80000044 80000048 // sw gp, -64(t5)
ff9ff06f 00 00000000 80000048 80000040 // j pc - 0x8
00001f17 30 80001040 80000040 80000044 // auipc t5, 0x1
fc3f2023 00 00000000 80000044 80000048 // sw gp, -64(t5)
ff9ff06f 00 00000000 80000048 80000040 // j pc - 0x8
00001f17 30 80001040 80000040 80000044 // auipc t5, 0x1
fc3f2023 00 00000000 80000044 80000048 // sw gp, -64(t5)
ff9ff06f 00 00000000 80000048 80000040 // j pc - 0x8
00001f17 30 80001040 80000040 80000044 // auipc t5, 0x1
fc3f2023 00 00000000 80000044 80000048 // sw gp, -64(t5)
ff9ff06f 00 00000000 80000048 80000040 // j pc - 0x8
00001f17 30 80001040 80000040 80000044 // auipc t5, 0x1
fc3f2023 00 00000000 80000044 80000048 // sw gp, -64(t5)
ff9ff06f 00 00000000 80000048 80000040 // j pc - 0x8
00001f17 30 80001040 80000040 80000044 // auipc t5, 0x1
fc3f2023 00 00000000 80000044 80000048 // sw gp, -64(t5)
ff9ff06f 00 00000000 80000048 80000040 // j pc - 0x8
00001f17 30 80001040 80000040 80000044 // auipc t5, 0x1
fc3f2023 00 00000000 80000044 80000048 // sw gp, -64(t5)
ff9ff06f 00 00000000 80000048 80000040 // j pc - 0x8
00001f17 30 80001040 80000040 80000044 // auipc t5, 0x1
fc3f2023 00 00000000 80000044 80000048 // sw gp, -64(t5)
ff9ff06f 00 00000000 80000048 80000040 // j pc - 0x8
00001f17 30 80001040 80000040 80000044 // auipc t5, 0x1
fc3f2023 00 00000000 80000044 80000048 // sw gp, -64(t5)
ff9ff06f 00 00000000 80000048 80000040 // j pc - 0x8
00001f17 30 80001040 80000040 80000044 // auipc t5, 0x1
fc3f2023 00 00000000 80000044 80000048 // sw gp, -64(t5)
ff9ff06f 00 00000000 80000048 80000040 // j pc - 0x8
00001f17 30 80001040 80000040 80000044 // auipc t5, 0x1
fc3f2023 00 00000000 80000044 80000048 // sw gp, -64(t5)
ff9ff06f 00 00000000 80000048 80000040 // j pc - 0x8
00001f17 30 80001040 80000040 80000044 // auipc t5, 0x1
fc3f2023 00 00000000 80000044 80000048 // sw gp, -64(t5)
ff9ff06f 00 00000000 80000048 80000040 // j pc - 0x8
00001f17 30 80001040 80000040 80000044 // auipc t5, 0x1
fc3f2023 00 00000000 80000044 80000048 // sw gp, -64(t5)
ff9ff06f 00 00000000 80000048 80000040 // j pc - 0x8
00001f17 30 80001040 80000040 80000044 // auipc t5, 0x1
fc3f2023 00 00000000 80000044 80000048 // sw gp, -64(t5)
ff9ff06f 00 00000000 80000048 80000040 // j pc - 0x8
00001f17 30 80001040 80000040 80000044 // auipc t5, 0x1
fc3f2023 00 00000000 80000044 80000048 // sw gp, -64(t5)
ff9ff06f 00 00000000 80000048 80000040 // j pc - 0x8
00001f17 30 80001040 80000040 80000044 // auipc t5, 0x1
fc3f2023 00 00000000 80000044 80000048 // sw gp, -64(t5)
ff9ff06f 00 00000000 80000048 80000040 // j pc - 0x8
00001f17 30 80001040 80000040 80000044 // auipc t5, 0x1
fc3f2023 00 00000000 80000044 80000048 // sw gp, -64(t5)
ff9ff06f 00 00000000 80000048 80000040 // j pc - 0x8
00001f17 30 80001040 80000040 80000044 // auipc t5, 0x1
fc3f2023 00 00000000 80000044 80000048 // sw gp, -64(t5)
ff9ff06f 00 00000000 80000048 80000040 // j pc - 0x8
00001f17 30 80001040 80000040 80000044 // auipc t5, 0x1
fc3f2023 00 00000000 80000044 80000048 // sw gp, -64(t5)
ff9ff06f 00 00000000 80000048 80000040 // j pc - 0x8
00001f17 30 80001040 80000040 80000044 // auipc t5, 0x1
fc3f2023 00 00000000 80000044 80000048 // sw gp, -64(t5)
ff9ff06f 00 00000000 80000048 80000040 // j pc - 0x8
00001f17 30 80001040 80000040 80000044 // auipc t5, 0x1
fc3f2023 00 00000000 80000044 80000048 // sw gp, -64(t5)
ff9ff06f 00 00000000 80000048 80000040 // j pc - 0x8
00001f17 30 80001040 80000040 80000044 // auipc t5, 0x1
fc3f2023 00 00000000 80000044 80000048 // sw gp, -64(t5)
ff9ff06f 00 00000000 80000048 80000040 // j pc - 0x8
00001f17 30 80001040 80000040 80000044 // auipc t5, 0x1
fc3f2023 00 00000000 80000044 80000048 // sw gp, -64(t5)
ff9ff06f 00 00000000 80000048 80000040 // j pc - 0x8
00001f17 30 80001040 80000040 80000044 // auipc t5, 0x1
fc3f2023 00 00000000 80000044 80000048 // sw gp, -64(t5)
ff9ff06f 00 00000000 80000048 80000040 // j pc - 0x8
00001f17 30 80001040 80000040 80000044 // auipc t5, 0x1
fc3f2023 00 00000000 80000044 80000048 // sw gp, -64(t5)
ff9ff06f 00 00000000 80000048 80000040 // j pc - 0x8
00001f17 30 80001040 80000040 80000044 // auipc t5, 0x1
fc3f2023 00 00000000 80000044 80000048 // sw gp, -64(t5)
ff9ff06f 00 00000000 80000048 80000040 // j pc - 0x8
00001f17 30 80001040 80000040 80000044 // auipc t5, 0x1
fc3f2023 00 00000000 80000044 80000048 // sw gp, -64(t5)
ff9ff06f 00 00000000 80000048 80000040 // j pc - 0x8
00001f17 30 80001040 80000040 80000044 // auipc t5, 0x1
fc3f2023 00 00000000 80000044 80000048 // sw gp, -64(t5)
ff9ff06f 00 00000000 80000048 80000040 // j pc - 0x8
00001f17 30 80001040 80000040 80000044 // auipc t5, 0x1
fc3f2023 00 00000000 80000044 80000048 // sw gp, -64(t5)
ff9ff06f 00 00000000 80000048 80000040 // j pc - 0x8
00001f17 30 80001040 80000040 80000044 // auipc t5, 0x1
fc3f2023 00 00000000 80000044 80000048 // sw gp, -64(t5)
ff9ff06f 00 00000000 80000048 80000040 // j pc - 0x8
00001f17 30 80001040 80000040 80000044 // auipc t5, 0x1
fc3f2023 00 00000000 80000044 80000048 // sw gp, -64(t5)
ff9ff06f 00 00000000 80000048 80000040 // j pc - 0x8
00001f17 30 80001040 80000040 80000044 // auipc t5, 0x1
fc3f2023 00 00000000 80000044 80000048 // sw gp, -64(t5)
ff9ff06f 00 00000000 80000048 80000040 // j pc - 0x8
00001f17 30 80001040 80000040 80000044 // auipc t5, 0x1
fc3f2023 00 00000000 80000044 80000048 // sw gp, -64(t5)
ff9ff06f 00 00000000 80000048 80000040 // j pc - 0x8
00001f17 30 80001040 80000040 80000044 // auipc t5, 0x1
fc3f2023 00 00000000 80000044 80000048 // sw gp, -64(t5)
ff9ff06f 00 00000000 80000048 80000040 // j pc - 0x8
00001f17 30 80001040 80000040 80000044 // auipc t5, 0x1
fc3f2023 00 00000000 80000044 80000048 // sw gp, -64(t5)
ff9ff06f 00 00000000 80000048 80000040 // j pc - 0x8
00001f17 30 80001040 80000040 80000044 // auipc t5, 0x1
fc3f2023 00 00000000 80000044 80000048 // sw gp, -64(t5)
ff9ff06f 00 00000000 80000048 80000040 // j pc - 0x8
00001f17 30 80001040 80000040 80000044 // auipc t5, 0x1
fc3f2023 00 00000000 80000044 80000048 // sw gp, -64(t5)
ff9ff06f 00 00000000 80000048 80000040 // j pc - 0x8
00001f17 30 80001040 80000040 80000044 // auipc t5, 0x1
fc3f2023 00 00000000 80000044 80000048 // sw gp, -64(t5)
ff9ff06f 00 00000000 80000048 80000040 // j pc - 0x8
00001f17 30 80001040 80000040 80000044 // auipc t5, 0x1
fc3f2023 00 00000000 80000044 80000048 // sw gp, -64(t5)
ff9ff06f 00 00000000 80000048 80000040 // j pc - 0x8
00001f17 30 80001040 80000040 80000044 // auipc t5, 0x1
fc3f2023 00 00000000 80000044 80000048 // sw gp, -64(t5)
ff9ff06f 00 00000000 80000048 80000040 // j pc - 0x8
00001f17 30 80001040 80000040 80000044 // auipc t5, 0x1
fc3f2023 00 00000000 80000044 80000048 // sw gp, -64(t5)
ff9ff06f 00 00000000 80000048 80000040 // j pc - 0x8
00001f17 30 80001040 80000040 80000044 // auipc t5, 0x1
fc3f2023 00 00000000 80000044 80000048 // sw gp, -64(t5)
ff9ff06f 00 00000000 80000048 80000040 // j pc - 0x8
00001f17 30 80001040 80000040 80000044 // auipc t5, 0x1
fc3f2023 00 00000000 80000044 80000048 // sw gp, -64(t5)
ff9ff06f 00 00000000 80000048 80000040 // j pc - 0x8
00001f17 30 80001040 80000040 80000044 // auipc t5, 0x1
fc3f2023 00 00000000 80000044 80000048 // sw gp, -64(t5)
ff9ff06f 00 00000000 80000048 80000040 // j pc - 0x8
00001f17 30 80001040 80000040 80000044 // auipc t5, 0x1
fc3f2023 00 00000000 80000044 80000048 // sw gp, -64(t5)
ff9ff06f 00 00000000 80000048 80000040 // j pc - 0x8
00001f17 30 80001040 80000040 80000044 // auipc t5, 0x1
fc3f2023 00 00000000 80000044 80000048 // sw gp, -64(t5)
ff9ff06f 00 00000000 80000048 80000040 // j pc - 0x8
00001f17 30 80001040 80000040 80000044 // auipc t5, 0x1
fc3f2023 00 00000000 80000044 80000048 // sw gp, -64(t5)
ff9ff06f 00 00000000 80000048 80000040 // j pc - 0x8
00001f17 30 80001040 80000040 80000044 // auipc t5, 0x1
fc3f2023 00 00000000 80000044 80000048 // sw gp, -64(t5)
ff9ff06f 00 00000000 80000048 80000040 // j pc - 0x8
00001f17 30 80001040 80000040 80000044 // auipc t5, 0x1
fc3f2023 00 00000000 80000044 80000048 // sw gp, -64(t5)
ff9ff06f 00 00000000 80000048 80000040 // j pc - 0x8
00001f17 30 80001040 80000040 80000044 // auipc t5, 0x1
fc3f2023 00 00000000 80000044 80000048 // sw gp, -64(t5)
ff9ff06f 00 00000000 80000048 80000040 // j pc - 0x8
00001f17 30 80001040 80000040 80000044 // auipc t5, 0x1
fc3f2023 00 00000000 80000044 80000048 // sw gp, -64(t5)
ff9ff06f 00 00000000 80000048 80000040 // j pc - 0x8
00001f17 30 80001040 80000040 80000044 // auipc t5, 0x1
fc3f2023 00 00000000 80000044 80000048 // sw gp, -64(t5)
ff9ff06f 00 00000000 80000048 80000040 // j pc - 0x8
00001f17 30 80001040 80000040 80000044 // auipc t5, 0x1
fc3f2023 00 00000000 80000044 80000048 // sw gp, -64(t5)
ff9ff06f 00 00000000 80000048 80000040 // j pc - 0x8
00001f17 30 80001040 80000040 80000044 // auipc t5, 0x1
fc3f2023 00 00000000 80000044 80000048 // sw gp, -64(t5)
ff9ff06f 00 00000000 80000048 80000040 // j pc - 0x8
00001f17 30 80001040 80000040 80000044 // auipc t5, 0x1
fc3f2023 00 00000000 80000044 80000048 // sw gp, -64(t5)
ff9ff06f 00 00000000 80000048 80000040 // j pc - 0x8
00001f17 30 80001040 80000040 80000044 // auipc t5, 0x1
fc3f2023 00 00000000 80000044 80000048 // sw gp, -64(t5)
ff9ff06f 00 00000000 80000048 80000040 // j pc - 0x8
00001f17 30 80001040 80000040 80000044 // auipc t5, 0x1
fc3f2023 00 00000000 80000044 80000048 // sw gp, -64(t5)
ff9ff06f 00 00000000 80000048 80000040 // j pc - 0x8
00001f17 30 80001040 80000040 80000044 // auipc t5, 0x1
fc3f2023 00 00000000 80000044 80000048 // sw gp, -64(t5)
ff9ff06f 00 00000000 80000048 80000040 // j pc - 0x8
00001f17 30 80001040 80000040 80000044 // auipc t5, 0x1
fc3f2023 00 00000000 80000044 80000048 // sw gp, -64(t5)
ff9ff06f 00 00000000 80000048 80000040 // j pc - 0x8
00001f17 30 80001040 80000040 80000044 // auipc t5, 0x1
fc3f2023 00 00000000 80000044 80000048 // sw gp, -64(t5)
ff9ff06f 00 00000000 80000048 80000040 // j pc - 0x8
00001f17 30 80001040 80000040 80000044 // auipc t5, 0x1
fc3f2023 00 00000000 80000044 80000048 // sw gp, -64(t5)
ff9ff06f 00 00000000 80000048 80000040 // j pc - 0x8
00001f17 30 80001040 80000040 80000044 // auipc t5, 0x1
fc3f2023 00 00000000 80000044 80000048 // sw gp, -64(t5)
ff9ff06f 00 00000000 80000048 80000040 // j pc - 0x8
00001f17 30 80001040 80000040 80000044 // auipc t5, 0x1
fc3f2023 00 00000000 80000044 80000048 // sw gp, -64(t5)
ff9ff06f 00 00000000 80000048 80000040 // j pc - 0x8
00001f17 30 80001040 80000040 80000044 // auipc t5, 0x1
fc3f2023 00 00000000 80000044 80000048 // sw gp, -64(t5)
ff9ff06f 00 00000000 80000048 80000040 // j pc - 0x8
00001f17 30 80001040 80000040 80000044 // auipc t5, 0x1
fc3f2023 00 00000000 80000044 80000048 // sw gp, -64(t5)
ff9ff06f 00 00000000 80000048 80000040 // j pc - 0x8
00001f17 30 80001040 80000040 80000044 // auipc t5, 0x1
fc3f2023 00 00000000 80000044 80000048 // sw gp, -64(t5)
ff9ff06f 00 00000000 80000048 80000040 // j pc - 0x8
00001f17 30 80001040 80000040 80000044 // auipc t5, 0x1
fc3f2023 00 00000000 80000044 80000048 // sw gp, -64(t5)
ff9ff06f 00 00000000 80000048 80000040 // j pc - 0x8
00001f17 30 80001040 80000040 80000044 // auipc t5, 0x1
fc3f2023 00 00000000 80000044 80000048 // sw gp, -64(t5)
ff9ff06f 00 00000000 80000048 80000040 // j pc - 0x8
00001f17 30 80001040 80000040 80000044 // auipc t5, 0x1
fc3f2023 00 00000000 80000044 80000048 // sw gp, -64(t5)
ff9ff06f 00 00000000 80000048 80000040 // j pc - 0x8
00001f17 30 80001040 80000040 80000044 // auipc t5, 0x1
fc3f2023 00 00000000 80000044 80000048 // sw gp, -64(t5)
ff9ff06f 00 00000000 80000048 80000040 // j pc - 0x8
00001f17 30 80001040 80000040 80000044 // auipc t5, 0x1
fc3f2023 00 00000000 80000044 80000048 // sw gp, -64(t5)
ff9ff06f 00 00000000 80000048 80000040 // j pc - 0x8
00001f17 30 80001040 80000040 80000044 // auipc t5, 0x1
fc3f2023 00 00000000 80000044 80000048 // sw gp, -64(t5)
ff9ff06f 00 00000000 80000048 80000040 // j pc - 0x8
00001f17 30 80001040 80000040 80000044 // auipc t5, 0x1
fc3f2023 00 00000000 80000044 80000048 // sw gp, -64(t5)
ff9ff06f 00 00000000 80000048 80000040 // j pc - 0x8
00001f17 30 80001040 80000040 80000044 // auipc t5, 0x1
fc3f2023 00 00000000 80000044 80000048 // sw gp, -64(t5)
ff9ff06f 00 00000000 80000048 80000040 // j pc - 0x8
00001f17 30 80001040 80000040 80000044 // auipc t5, 0x1
fc3f2023 00 00000000 80000044 80000048 // sw gp, -64(t5)
ff9ff06f 00 00000000 80000048 80000040 // j pc - 0x8
00001f17 30 80001040 80000040 80000044 // auipc t5, 0x1
fc3f2023 00 00000000 80000044 80000048 // sw gp, -64(t5)
ff9ff06f 00 00000000 80000048 80000040 // j pc - 0x8
00001f17 30 80001040 80000040 80000044 // auipc t5, 0x1
fc3f2023 00 00000000 80000044 80000048 // sw gp, -64(t5)
ff9ff06f 00 00000000 80000048 80000040 // j pc - 0x8
00001f17 30 80001040 80000040 80000044 // auipc t5, 0x1
fc3f2023 00 00000000 80000044 80000048 // sw gp, -64(t5)
ff9ff06f 00 00000000 80000048 80000040 // j pc - 0x8
00001f17 30 80001040 80000040 80000044 // auipc t5, 0x1
fc3f2023 00 00000000 80000044 80000048 // sw gp, -64(t5)
ff9ff06f 00 00000000 80000048 80000040 // j pc - 0x8
00001f17 30 80001040 80000040 80000044 // auipc t5, 0x1
fc3f2023 00 00000000 80000044 80000048 // sw gp, -64(t5)
ff9ff06f 00 00000000 80000048 80000040 // j pc - 0x8
00001f17 30 80001040 80000040 80000044 // auipc t5, 0x1
fc3f2023 00 00000000 80000044 80000048 // sw gp, -64(t5)
ff9ff06f 00 00000000 80000048 80000040 // j pc - 0x8
00001f17 30 80001040 80000040 80000044 // auipc t5, 0x1
fc3f2023 00 00000000 80000044 80000048 // sw gp, -64(t5)
ff9ff06f 00 00000000 80000048 80000040 // j pc - 0x8
00001f17 30 80001040 80000040 80000044 // auipc t5, 0x1
fc3f2023 00 00000000 80000044 80000048 // sw gp, -64(t5)
ff9ff06f 00 00000000 80000048 80000040 // j pc - 0x8
00001f17 30 80001040 80000040 80000044 // auipc t5, 0x1
fc3f2023 00 00000000 80000044 80000048 // sw gp, -64(t5)
ff9ff06f 00 00000000 80000048 80000040 // j pc - 0x8
00001f17 30 80001040 80000040 80000044 // auipc t5, 0x1
fc3f2023 00 00000000 80000044 80000048 // sw gp, -64(t5)
ff9ff06f 00 00000000 80000048 80000040 // j pc - 0x8
00001f17 30 80001040 80000040 80000044 // auipc t5, 0x1
fc3f2023 00 00000000 80000044 80000048 // sw gp, -64(t5)
ff9ff06f 00 00000000 80000048 80000040 // j pc - 0x8
00001f17 30 80001040 80000040 80000044 // auipc t5, 0x1
fc3f2023 00 00000000 80000044 80000048 // sw gp, -64(t5)
ff9ff06f 00 00000000 80000048 80000040 // j pc - 0x8
00001f17 30 80001040 80000040 80000044 // auipc t5, 0x1
fc3f2023 00 00000000 80000044 80000048 // sw gp, -64(t5)
ff9ff06f 00 00000000 80000048 80000040 // j pc - 0x8
00001f17 30 80001040 80000040 80000044 // auipc t5, 0x1
fc3f2023 00 00000000 80000044 80000048 // sw gp, -64(t5)
ff9ff06f 00 00000000 80000048 80000040 // j pc - 0x8
00001f17 30 80001040 80000040 80000044 // auipc t5, 0x1
fc3f2023 00 00000000 80000044 80000048 // sw gp, -64(t5)
ff9ff06f 00 00000000 80000048 80000040 // j pc - 0x8
00001f17 30 80001040 80000040 80000044 // auipc t5, 0x1
fc3f2023 00 00000000 80000044 80000048 // sw gp, -64(t5)
ff9ff06f 00 00000000 80000048 80000040 // j pc - 0x8
00001f17 30 80001040 80000040 80000044 // auipc t5, 0x1
fc3f2023 00 00000000 80000044 80000048 // sw gp, -64(t5)
ff9ff06f 00 00000000 80000048 80000040 // j pc - 0x8
00001f17 30 80001040 80000040 80000044 // auipc t5, 0x1
fc3f2023 00 00000000 80000044 80000048 // sw gp, -64(t5)
ff9ff06f 00 00000000 80000048 80000040 // j pc - 0x8
00001f17 30 80001040 80000040 80000044 // auipc t5, 0x1
fc3f2023 00 00000000 80000044 80000048 // sw gp, -64(t5)
ff9ff06f 00 00000000 80000048 80000040 // j pc - 0x8
00001f17 30 80001040 80000040 80000044 // auipc t5, 0x1
fc3f2023 00 00000000 80000044 80000048 // sw gp, -64(t5)
ff9ff06f 00 00000000 80000048 80000040 // j pc - 0x8
00001f17 30 80001040 80000040 80000044 // auipc t5, 0x1
fc3f2023 00 00000000 80000044 80000048 // sw gp, -64(t5)
ff9ff06f 00 00000000 80000048 80000040 // j pc - 0x8
00001f17 30 80001040 80000040 80000044 // auipc t5, 0x1
fc3f2023 00 00000000 80000044 80000048 // sw gp, -64(t5)
ff9ff06f 00 00000000 80000048 80000040 // j pc - 0x8
00001f17 30 80001040 80000040 80000044 // auipc t5, 0x1
fc3f2023 00 00000000 80000044 80000048 // sw gp, -64(t5)
ff9ff06f 00 00000000 80000048 80000040 // j pc - 0x8
00001f17 30 80001040 80000040 80000044 // auipc t5, 0x1
fc3f2023 00 00000000 80000044 80000048 // sw gp, -64(t5)
ff9ff06f 00 00000000 80000048 80000040 // j pc - 0x8
00001f17 30 80001040 80000040 80000044 // auipc t5, 0x1
fc3f2023 00 00000000 80000044 80000048 // sw gp, -64(t5)
ff9ff06f 00 00000000 80000048 80000040 // j pc - 0x8
00001f17 30 80001040 80000040 80000044 // auipc t5, 0x1
fc3f2023 00 00000000 80000044 80000048 // sw gp, -64(t5)
ff9ff06f 00 00000000 80000048 80000040 // j pc - 0x8
00001f17 30 80001040 80000040 80000044 // auipc t5, 0x1
fc3f2023 00 00000000 80000044 80000048 // sw gp, -64(t5)
ff9ff06f 00 00000000 80000048 80000040 // j pc - 0x8
00001f17 30 80001040 80000040 80000044 // auipc t5, 0x1
fc3f2023 00 00000000 80000044 80000048 // sw gp, -64(t5)
ff9ff06f 00 00000000 80000048 80000040 // j pc - 0x8
00001f17 30 80001040 80000040 80000044 // auipc t5, 0x1
fc3f2023 00 00000000 80000044 80000048 // sw gp, -64(t5)
ff9ff06f 00 00000000 80000048 80000040 // j pc - 0x8
00001f17 30 80001040 80000040 80000044 // auipc t5, 0x1
fc3f2023 00 00000000 80000044 80000048 // sw gp, -64(t5)
ff9ff06f 00 00000000 80000048 80000040 // j pc - 0x8
00001f17 30 80001040 80000040 80000044 // auipc t5, 0x1
fc3f2023 00 00000000 80000044 80000048 // sw gp, -64(t5)
ff9ff06f 00 00000000 80000048 80000040 // j pc - 0x8
00001f17 30 80001040 80000040 80000044 // auipc t5, 0x1
fc3f2023 00 00000000 80000044 80000048 // sw gp, -64(t5)
ff9ff06f 00 00000000 80000048 80000040 // j pc - 0x8
00001f17 30 80001040 80000040 80000044 // auipc t5, 0x1
fc3f2023 00 00000000 80000044 80000048 // sw gp, -64(t5)
ff9ff06f 00 00000000 80000048 80000040 // j pc - 0x8
00001f17 30 80001040 80000040 80000044 // auipc t5, 0x1
fc3f2023 00 00000000 80000044 80000048 // sw gp, -64(t5)
ff9ff06f 00 00000000 80000048 80000040 // j pc - 0x8
00001f17 30 80001040 80000040 80000044 // auipc t5, 0x1
fc3f2023 00 00000000 80000044 80000048 // sw gp, -64(t5)
ff9ff06f 00 00000000 80000048 80000040 // j pc - 0x8
00001f17 30 80001040 80000040 80000044 // auipc t5, 0x1
fc3f2023 00 00000000 80000044 80000048 // sw gp, -64(t5)
ff9ff06f 00 00000000 80000048 80000040 // j pc - 0x8
00001f17 30 80001040 80000040 80000044 // auipc t5, 0x1
fc3f2023 00 00000000 80000044 80000048 // sw gp, -64(t5)
ff9ff06f 00 00000000 80000048 80000040 // j pc - 0x8
00001f17 30 80001040 80000040 80000044 // auipc t5, 0x1
fc3f2023 00 00000000 80000044 80000048 // sw gp, -64(t5)
ff9ff06f 00 00000000 80000048 80000040 // j pc - 0x8
00001f17 30 80001040 80000040 80000044 // auipc t5, 0x1
fc3f2023 00 00000000 80000044 80000048 // sw gp, -64(t5)
ff9ff06f 00 00000000 80000048 80000040 // j pc - 0x8
00001f17 30 80001040 80000040 80000044 // auipc t5, 0x1
fc3f2023 00 00000000 80000044 80000048 // sw gp, -64(t5)
ff9ff06f 00 00000000 80000048 80000040 // j pc - 0x8
00001f17 30 80001040 80000040 80000044 // auipc t5, 0x1
fc3f2023 00 00000000 80000044 80000048 // sw gp, -64(t5)
ff9ff06f 00 00000000 80000048 80000040 // j pc - 0x8
00001f17 30 80001040 80000040 80000044 // auipc t5, 0x1
fc3f2023 00 00000000 80000044 80000048 // sw gp, -64(t5)
ff9ff06f 00 00000000 80000048 80000040 // j pc - 0x8
00001f17 30 80001040 80000040 80000044 // auipc t5, 0x1
fc3f2023 00 00000000 80000044 80000048 // sw gp, -64(t5)
ff9ff06f 00 00000000 80000048 80000040 // j pc - 0x8
00001f17 30 80001040 80000040 80000044 // auipc t5, 0x1
fc3f2023 00 00000000 80000044 80000048 // sw gp, -64(t5)
ff9ff06f 00 00000000 80000048 80000040 // j pc - 0x8
00001f17 30 80001040 80000040 80000044 // auipc t5, 0x1
fc3f2023 00 00000000 80000044 80000048 // sw gp, -64(t5)
ff9ff06f 00 00000000 80000048 80000040 // j pc - 0x8
00001f17 30 80001040 80000040 80000044 // auipc t5, 0x1
fc3f2023 00 00000000 80000044 80000048 // sw gp, -64(t5)
ff9ff06f 00 00000000 80000048 80000040 // j pc - 0x8
00001f17 30 80001040 80000040 80000044 // auipc t5, 0x1
fc3f2023 00 00000000 80000044 80000048 // sw gp, -64(t5)
ff9ff06f 00 00000000 80000048 80000040 // j pc - 0x8
00001f17 30 80001040 80000040 80000044 // auipc t5, 0x1
fc3f2023 00 00000000 80000044 80000048 // sw gp, -64(t5)
ff9ff06f 00 00000000 80000048 80000040 // j pc - 0x8
00001f17 30 80001040 80000040 80000044 // auipc t5, 0x1
fc3f2023 00 00000000 80000044 80000048 // sw gp, -64(t5)
ff9ff06f 00 00000000 80000048 80000040 // j pc - 0x8
00001f17 30 80001040 80000040 80000044 // auipc t5, 0x1
fc3f2023 00 00000000 80000044 80000048 // sw gp, -64(t5)
ff9ff06f 00 00000000 80000048 80000040 // j pc - 0x8
00001f17 30 80001040 80000040 80000044 // auipc t5, 0x1
fc3f2023 00 00000000 80000044 80000048 // sw gp, -64(t5)
ff9ff06f 00 00000000 80000048 80000040 // j pc - 0x8
00001f17 30 80001040 80000040 80000044 // auipc t5, 0x1
fc3f2023 00 00000000 80000044 80000048 // sw gp, -64(t5)
ff9ff06f 00 00000000 80000048 80000040 // j pc - 0x8
00001f17 30 80001040 80000040 80000044 // auipc t5, 0x1
fc3f2023 00 00000000 80000044 80000048 // sw gp, -64(t5)
ff9ff06f 00 00000000 80000048 80000040 // j pc - 0x8
00001f17 30 80001040 80000040 80000044 // auipc t5, 0x1
fc3f2023 00 00000000 80000044 80000048 // sw gp, -64(t5)
ff9ff06f 00 00000000 80000048 80000040 // j pc - 0x8
00001f17 30 80001040 80000040 80000044 // auipc t5, 0x1
fc3f2023 00 00000000 80000044 80000048 // sw gp, -64(t5)
ff9ff06f 00 00000000 80000048 80000040 // j pc - 0x8
00001f17 30 80001040 80000040 80000044 // auipc t5, 0x1
fc3f2023 00 00000000 80000044 80000048 // sw gp, -64(t5)
ff9ff06f 00 00000000 80000048 80000040 // j pc - 0x8
00001f17 30 80001040 80000040 80000044 // auipc t5, 0x1
fc3f2023 00 00000000 80000044 80000048 // sw gp, -64(t5)
ff9ff06f 00 00000000 80000048 80000040 // j pc - 0x8
00001f17 30 80001040 80000040 80000044 // auipc t5, 0x1
fc3f2023 00 00000000 80000044 80000048 // sw gp, -64(t5)
ff9ff06f 00 00000000 80000048 80000040 // j pc - 0x8
00001f17 30 80001040 80000040 80000044 // auipc t5, 0x1
fc3f2023 00 00000000 80000044 80000048 // sw gp, -64(t5)
ff9ff06f 00 00000000 80000048 80000040 // j pc - 0x8
00001f17 30 80001040 80000040 80000044 // auipc t5, 0x1
fc3f2023 00 00000000 80000044 80000048 // sw gp, -64(t5)
ff9ff06f 00 00000000 80000048 80000040 // j pc - 0x8
00001f17 30 80001040 80000040 80000044 // auipc t5, 0x1
fc3f2023 00 00000000 80000044 80000048 // sw gp, -64(t5)
ff9ff06f 00 00000000 80000048 80000040 // j pc - 0x8
00001f17 30 80001040 80000040 80000044 // auipc t5, 0x1
fc3f2023 00 00000000 80000044 80000048 // sw gp, -64(t5)
ff9ff06f 00 00000000 80000048 80000040 // j pc - 0x8
00001f17 30 80001040 80000040 80000044 // auipc t5, 0x1
fc3f2023 00 00000000 80000044 80000048 // sw gp, -64(t5)
ff9ff06f 00 00000000 80000048 80000040 // j pc - 0x8
00001f17 30 80001040 80000040 80000044 // auipc t5, 0x1
fc3f2023 00 00000000 80000044 80000048 // sw gp, -64(t5)
ff9ff06f 00 00000000 80000048 80000040 // j pc - 0x8
00001f17 30 80001040 80000040 80000044 // auipc t5, 0x1
fc3f2023 00 00000000 80000044 80000048 // sw gp, -64(t5)
ff9ff06f 00 00000000 80000048 80000040 // j pc - 0x8
00001f17 30 80001040 80000040 80000044 // auipc t5, 0x1
fc3f2023 00 00000000 80000044 80000048 // sw gp, -64(t5)
ff9ff06f 00 00000000 80000048 80000040 // j pc - 0x8
00001f17 30 80001040 80000040 80000044 // auipc t5, 0x1
fc3f2023 00 00000000 80000044 80000048 // sw gp, -64(t5)
ff9ff06f 00 00000000 80000048 80000040 // j pc - 0x8
00001f17 30 80001040 80000040 80000044 // auipc t5, 0x1
fc3f2023 00 00000000 80000044 80000048 // sw gp, -64(t5)
ff9ff06f 00 00000000 80000048 80000040 // j pc - 0x8
00001f17 30 80001040 80000040 80000044 // auipc t5, 0x1
fc3f2023 00 00000000 80000044 80000048 // sw gp, -64(t5)
ff9ff06f 00 00000000 80000048 80000040 // j pc - 0x8
00001f17 30 80001040 80000040 80000044 // auipc t5, 0x1
fc3f2023 00 00000000 80000044 80000048 // sw gp, -64(t5)
ff9ff06f 00 00000000 80000048 80000040 // j pc - 0x8
00001f17 30 80001040 80000040 80000044 // auipc t5, 0x1
fc3f2023 00 00000000 80000044 80000048 // sw gp, -64(t5)
ff9ff06f 00 00000000 80000048 80000040 // j pc - 0x8
00001f17 30 80001040 80000040 80000044 // auipc t5, 0x1
fc3f2023 00 00000000 80000044 80000048 // sw gp, -64(t5)
ff9ff06f 00 00000000 80000048 80000040 // j pc - 0x8
00001f17 30 80001040 80000040 80000044 // auipc t5, 0x1
fc3f2023 00 00000000 80000044 80000048 // sw gp, -64(t5)
ff9ff06f 00 00000000 80000048 80000040 // j pc - 0x8
00001f17 30 80001040 80000040 80000044 // auipc t5, 0x1
fc3f2023 00 00000000 80000044 80000048 // sw gp, -64(t5)
ff9ff06f 00 00000000 80000048 80000040 // j pc - 0x8
00001f17 30 80001040 80000040 80000044 // auipc t5, 0x1
fc3f2023 00 00000000 80000044 80000048 // sw gp, -64(t5)
ff9ff06f 00 00000000 80000048 80000040 // j pc - 0x8
00001f17 30 80001040 80000040 80000044 // auipc t5, 0x1
fc3f2023 00 00000000 80000044 80000048 // sw gp, -64(t5)
ff9ff06f 00 00000000 80000048 80000040 // j pc - 0x8
00001f17 30 80001040 80000040 80000044 // auipc t5, 0x1
fc3f2023 00 00000000 80000044 80000048 // sw gp, -64(t5)
ff9ff06f 00 00000000 80000048 80000040 // j pc - 0x8
00001f17 30 80001040 80000040 80000044 // auipc t5, 0x1
fc3f2023 00 00000000 80000044 80000048 // sw gp, -64(t5)
ff9ff06f 00 00000000 80000048 80000040 // j pc - 0x8
00001f17 30 80001040 80000040 80000044 // auipc t5, 0x1
fc3f2023 00 00000000 80000044 80000048 // sw gp, -64(t5)
ff9ff06f 00 00000000 80000048 80000040 // j pc - 0x8
00001f17 30 80001040 80000040 80000044 // auipc t5, 0x1
fc3f2023 00 00000000 80000044 80000048 // sw gp, -64(t5)
ff9ff06f 00 00000000 80000048 80000040 // j pc - 0x8
00001f17 30 80001040 80000040 80000044 // auipc t5, 0x1
fc3f2023 00 00000000 80000044 80000048 // sw gp, -64(t5)
ff9ff06f 00 00000000 80000048 80000040 // j pc - 0x8
00001f17 30 80001040 80000040 80000044 // auipc t5, 0x1
fc3f2023 00 00000000 80000044 80000048 // sw gp, -64(t5)
ff9ff06f 00 00000000 80000048 80000040 // j pc - 0x8
00001f17 30 80001040 80000040 80000044 // auipc t5, 0x1
fc3f2023 00 00000000 80000044 80000048 // sw gp, -64(t5)
ff9ff06f 00 00000000 80000048 80000040 // j pc - 0x8
00001f17 30 80001040 80000040 80000044 // auipc t5, 0x1
fc3f2023 00 00000000 80000044 80000048 // sw gp, -64(t5)
ff9ff06f 00 00000000 80000048 80000040 // j pc - 0x8
00001f17 30 80001040 80000040 80000044 // auipc t5, 0x1
fc3f2023 00 00000000 80000044 80000048 // sw gp, -64(t5)
ff9ff06f 00 00000000 80000048 80000040 // j pc - 0x8
00001f17 30 80001040 80000040 80000044 // auipc t5, 0x1
fc3f2023 00 00000000 80000044 80000048 // sw gp, -64(t5)
ff9ff06f 00 00000000 80000048 80000040 // j pc - 0x8
00001f17 30 80001040 80000040 80000044 // auipc t5, 0x1
fc3f2023 00 00000000 80000044 80000048 // sw gp, -64(t5)
ff9ff06f 00 00000000 80000048 80000040 // j pc - 0x8
00001f17 30 80001040 80000040 80000044 // auipc t5, 0x1
fc3f2023 00 00000000 80000044 80000048 // sw gp, -64(t5)
ff9ff06f 00 00000000 80000048 80000040 // j pc - 0x8
00001f17 30 80001040 80000040 80000044 // auipc t5, 0x1
fc3f2023 00 00000000 80000044 80000048 // sw gp, -64(t5)
ff9ff06f 00 00000000 80000048 80000040 // j pc - 0x8
00001f17 30 80001040 80000040 80000044 // auipc t5, 0x1
fc3f2023 00 00000000 80000044 80000048 // sw gp, -64(t5)
ff9ff06f 00 00000000 80000048 80000040 // j pc - 0x8
00001f17 30 80001040 80000040 80000044 // auipc t5, 0x1
fc3f2023 00 00000000 80000044 80000048 // sw gp, -64(t5)
ff9ff06f 00 00000000 80000048 80000040 // j pc - 0x8
00001f17 30 80001040 80000040 80000044 // auipc t5, 0x1
fc3f2023 00 00000000 80000044 80000048 // sw gp, -64(t5)
ff9ff06f 00 00000000 80000048 80000040 // j pc - 0x8
00001f17 30 80001040 80000040 80000044 // auipc t5, 0x1
fc3f2023 00 00000000 80000044 80000048 // sw gp, -64(t5)
ff9ff06f 00 00000000 80000048 80000040 // j pc - 0x8
00001f17 30 80001040 80000040 80000044 // auipc t5, 0x1
fc3f2023 00 00000000 80000044 80000048 // sw gp, -64(t5)
ff9ff06f 00 00000000 80000048 80000040 // j pc - 0x8
00001f17 30 80001040 80000040 80000044 // auipc t5, 0x1
fc3f2023 00 00000000 80000044 80000048 // sw gp, -64(t5)
ff9ff06f 00 00000000 80000048 80000040 // j pc - 0x8
00001f17 30 80001040 80000040 80000044 // auipc t5, 0x1
fc3f2023 00 00000000 80000044 80000048 // sw gp, -64(t5)
ff9ff06f 00 00000000 80000048 80000040 // j pc - 0x8
00001f17 30 80001040 80000040 80000044 // auipc t5, 0x1
fc3f2023 00 00000000 80000044 80000048 // sw gp, -64(t5)
ff9ff06f 00 00000000 80000048 80000040 // j pc - 0x8
00001f17 30 80001040 80000040 80000044 // auipc t5, 0x1
fc3f2023 00 00000000 80000044 80000048 // sw gp, -64(t5)
ff9ff06f 00 00000000 80000048 80000040 // j pc - 0x8
00001f17 30 80001040 80000040 80000044 // auipc t5, 0x1
fc3f2023 00 00000000 80000044 80000048 // sw gp, -64(t5)
ff9ff06f 00 00000000 80000048 80000040 // j pc - 0x8
00001f17 30 80001040 80000040 80000044 // auipc t5, 0x1
fc3f2023 00 00000000 80000044 80000048 // sw gp, -64(t5)
ff9ff06f 00 00000000 80000048 80000040 // j pc - 0x8
00001f17 30 80001040 80000040 80000044 // auipc t5, 0x1
fc3f2023 00 00000000 80000044 80000048 // sw gp, -64(t5)
ff9ff06f 00 00000000 80000048 80000040 // j pc - 0x8
00001f17 30 80001040 80000040 80000044 // auipc t5, 0x1
fc3f2023 00 00000000 80000044 80000048 // sw gp, -64(t5)
ff9ff06f 00 00000000 80000048 80000040 // j pc - 0x8
00001f17 30 80001040 80000040 80000044 // auipc t5, 0x1
fc3f2023 00 00000000 80000044 80000048 // sw gp, -64(t5)
ff9ff06f 00 00000000 80000048 80000040 // j pc - 0x8
00001f17 30 80001040 80000040 80000044 // auipc t5, 0x1
fc3f2023 00 00000000 80000044 80000048 // sw gp, -64(t5)
ff9ff06f 00 00000000 80000048 80000040 // j pc - 0x8
00001f17 30 80001040 80000040 80000044 // auipc t5, 0x1
fc3f2023 00 00000000 80000044 80000048 // sw gp, -64(t5)
ff9ff06f 00 00000000 80000048 80000040 // j pc - 0x8
00001f17 30 80001040 80000040 80000044 // auipc t5, 0x1
fc3f2023 00 00000000 80000044 80000048 // sw gp, -64(t5)
ff9ff06f 00 00000000 80000048 80000040 // j pc - 0x8
00001f17 30 80001040 80000040 80000044 // auipc t5, 0x1
fc3f2023 00 00000000 80000044 80000048 // sw gp, -64(t5)
ff9ff06f 00 00000000 80000048 80000040 // j pc - 0x8
00001f17 30 80001040 80000040 80000044 // auipc t5, 0x1
fc3f2023 00 00000000 80000044 80000048 // sw gp, -64(t5)
ff9ff06f 00 00000000 80000048 80000040 // j pc - 0x8
00001f17 30 80001040 80000040 80000044 // auipc t5, 0x1
fc3f2023 00 00000000 80000044 80000048 // sw gp, -64(t5)
ff9ff06f 00 00000000 80000048 80000040 // j pc - 0x8
00001f17 30 80001040 80000040 80000044 // auipc t5, 0x1
fc3f2023 00 00000000 80000044 80000048 // sw gp, -64(t5)
ff9ff06f 00 00000000 80000048 80000040 // j pc - 0x8
00001f17 30 80001040 80000040 80000044 // auipc t5, 0x1
fc3f2023 00 00000000 80000044 80000048 // sw gp, -64(t5)
ff9ff06f 00 00000000 80000048 80000040 // j pc - 0x8
00001f17 30 80001040 80000040 80000044 // auipc t5, 0x1
fc3f2023 00 00000000 80000044 80000048 // sw gp, -64(t5)
ff9ff06f 00 00000000 80000048 80000040 // j pc - 0x8
00001f17 30 80001040 80000040 80000044 // auipc t5, 0x1
fc3f2023 00 00000000 80000044 80000048 // sw gp, -64(t5)
ff9ff06f 00 00000000 80000048 80000040 // j pc - 0x8
00001f17 30 80001040 80000040 80000044 // auipc t5, 0x1
fc3f2023 00 00000000 80000044 80000048 // sw gp, -64(t5)
ff9ff06f 00 00000000 80000048 80000040 // j pc - 0x8
00001f17 30 80001040 80000040 80000044 // auipc t5, 0x1
fc3f2023 00 00000000 80000044 80000048 // sw gp, -64(t5)
ff9ff06f 00 00000000 80000048 80000040 // j pc - 0x8
00001f17 30 80001040 80000040 80000044 // auipc t5, 0x1
fc3f2023 00 00000000 80000044 80000048 // sw gp, -64(t5)
ff9ff06f 00 00000000 80000048 80000040 // j pc - 0x8
00001f17 30 80001040 80000040 80000044 // auipc t5, 0x1
fc3f2023 00 00000000 80000044 80000048 // sw gp, -64(t5)
ff9ff06f 00 00000000 80000048 80000040 // j pc - 0x8
00001f17 30 80001040 80000040 80000044 // auipc t5, 0x1
fc3f2023 00 00000000 80000044 80000048 // sw gp, -64(t5)
ff9ff06f 00 00000000 80000048 80000040 // j pc - 0x8
00001f17 30 80001040 80000040 80000044 // auipc t5, 0x1
fc3f2023 00 00000000 80000044 80000048 // sw gp, -64(t5)
ff9ff06f 00 00000000 80000048 80000040 // j pc - 0x8
00001f17 30 80001040 80000040 80000044 // auipc t5, 0x1
fc3f2023 00 00000000 80000044 80000048 // sw gp, -64(t5)
ff9ff06f 00 00000000 80000048 80000040 // j pc - 0x8
00001f17 30 80001040 80000040 80000044 // auipc t5, 0x1
fc3f2023 00 00000000 80000044 80000048 // sw gp, -64(t5)
ff9ff06f 00 00000000 80000048 80000040 // j pc - 0x8
00001f17 30 80001040 80000040 80000044 // auipc t5, 0x1
fc3f2023 00 00000000 80000044 80000048 // sw gp, -64(t5)
ff9ff06f 00 00000000 80000048 80000040 // j pc - 0x8
00001f17 30 80001040 80000040 80000044 // auipc t5, 0x1
fc3f2023 00 00000000 80000044 80000048 // sw gp, -64(t5)
ff9ff06f 00 00000000 80000048 80000040 // j pc - 0x8
00001f17 30 80001040 80000040 80000044 // auipc t5, 0x1
fc3f2023 00 00000000 80000044 80000048 // sw gp, -64(t5)
ff9ff06f 00 00000000 80000048 80000040 // j pc - 0x8
00001f17 30 80001040 80000040 80000044 // auipc t5, 0x1
fc3f2023 00 00000000 80000044 80000048 // sw gp, -64(t5)
ff9ff06f 00 00000000 80000048 80000040 // j pc - 0x8
00001f17 30 80001040 80000040 80000044 // auipc t5, 0x1
fc3f2023 00 00000000 80000044 80000048 // sw gp, -64(t5)
ff9ff06f 00 00000000 80000048 80000040 // j pc - 0x8
00001f17 30 80001040 80000040 80000044 // auipc t5, 0x1
fc3f2023 00 00000000 80000044 80000048 // sw gp, -64(t5)
ff9ff06f 00 00000000 80000048 80000040 // j pc - 0x8
00001f17 30 80001040 80000040 80000044 // auipc t5, 0x1
fc3f2023 00 00000000 80000044 80000048 // sw gp, -64(t5)
ff9ff06f 00 00000000 80000048 80000040 // j pc - 0x8
00001f17 30 80001040 80000040 80000044 // auipc t5, 0x1
fc3f2023 00 00000000 80000044 80000048 // sw gp, -64(t5)
ff9ff06f 00 00000000 80000048 80000040 // j pc - 0x8
00001f17 30 80001040 80000040 80000044 // auipc t5, 0x1
fc3f2023 00 00000000 80000044 80000048 // sw gp, -64(t5)
ff9ff06f 00 00000000 80000048 80000040 // j pc - 0x8
00001f17 30 80001040 80000040 80000044 // auipc t5, 0x1
fc3f2023 00 00000000 80000044 80000048 // sw gp, -64(t5)
ff9ff06f 00 00000000 80000048 80000040 // j pc - 0x8
00001f17 30 80001040 80000040 80000044 // auipc t5, 0x1
fc3f2023 00 00000000 80000044 80000048 // sw gp, -64(t5)
ff9ff06f 00 00000000 80000048 80000040 // j pc - 0x8
00001f17 30 80001040 80000040 80000044 // auipc t5, 0x1
fc3f2023 00 00000000 80000044 80000048 // sw gp, -64(t5)
ff9ff06f 00 00000000 80000048 80000040 // j pc - 0x8
00001f17 30 80001040 80000040 80000044 // auipc t5, 0x1
fc3f2023 00 00000000 80000044 80000048 // sw gp, -64(t5)
ff9ff06f 00 00000000 80000048 80000040 // j pc - 0x8
00001f17 30 80001040 80000040 80000044 // auipc t5, 0x1
fc3f2023 00 00000000 80000044 80000048 // sw gp, -64(t5)
ff9ff06f 00 00000000 80000048 80000040 // j pc - 0x8
00001f17 30 80001040 80000040 80000044 // auipc t5, 0x1
fc3f2023 00 00000000 80000044 80000048 // sw gp, -64(t5)
ff9ff06f 00 00000000 80000048 80000040 // j pc - 0x8
00001f17 30 80001040 80000040 80000044 // auipc t5, 0x1
fc3f2023 00 00000000 80000044 80000048 // sw gp, -64(t5)
ff9ff06f 00 00000000 80000048 80000040 // j pc - 0x8
00001f17 30 80001040 80000040 80000044 // auipc t5, 0x1
fc3f2023 00 00000000 80000044 80000048 // sw gp, -64(t5)
ff9ff06f 00 00000000 80000048 80000040 // j pc - 0x8
00001f17 30 80001040 80000040 80000044 // auipc t5, 0x1
fc3f2023 00 00000000 80000044 80000048 // sw gp, -64(t5)
ff9ff06f 00 00000000 80000048 80000040 // j pc - 0x8
00001f17 30 80001040 80000040 80000044 // auipc t5, 0x1
fc3f2023 00 00000000 80000044 80000048 // sw gp, -64(t5)
ff9ff06f 00 00000000 80000048 80000040 // j pc - 0x8
00001f17 30 80001040 80000040 80000044 // auipc t5, 0x1
fc3f2023 00 00000000 80000044 80000048 // sw gp, -64(t5)
ff9ff06f 00 00000000 80000048 80000040 // j pc - 0x8
00001f17 30 80001040 80000040 80000044 // auipc t5, 0x1
fc3f2023 00 00000000 80000044 80000048 // sw gp, -64(t5)
ff9ff06f 00 00000000 80000048 80000040 // j pc - 0x8
00001f17 30 80001040 80000040 80000044 // auipc t5, 0x1
fc3f2023 00 00000000 80000044 80000048 // sw gp, -64(t5)
ff9ff06f 00 00000000 80000048 80000040 // j pc - 0x8
00001f17 30 80001040 80000040 80000044 // auipc t5, 0x1
fc3f2023 00 00000000 80000044 80000048 // sw gp, -64(t5)
ff9ff06f 00 00000000 80000048 80000040 // j pc - 0x8
00001f17 30 80001040 80000040 80000044 // auipc t5, 0x1
fc3f2023 00 00000000 80000044 80000048 // sw gp, -64(t5)
ff9ff06f 00 00000000 80000048 80000040 // j pc - 0x8
00001f17 30 80001040 80000040 80000044 // auipc t5, 0x1
fc3f2023 00 00000000 80000044 80000048 // sw gp, -64(t5)
ff9ff06f 00 00000000 80000048 80000040 // j pc - 0x8
00001f17 30 80001040 80000040 80000044 // auipc t5, 0x1
fc3f2023 00 00000000 80000044 80000048 // sw gp, -64(t5)
ff9ff06f 00 00000000 80000048 80000040 // j pc - 0x8
00001f17 30 80001040 80000040 80000044 // auipc t5, 0x1
fc3f2023 00 00000000 80000044 80000048 // sw gp, -64(t5)
ff9ff06f 00 00000000 80000048 80000040 // j pc - 0x8
00001f17 30 80001040 80000040 80000044 // auipc t5, 0x1
fc3f2023 00 00000000 80000044 80000048 // sw gp, -64(t5)
ff9ff06f 00 00000000 80000048 80000040 // j pc - 0x8
00001f17 30 80001040 80000040 80000044 // auipc t5, 0x1
fc3f2023 00 00000000 80000044 80000048 // sw gp, -64(t5)
ff9ff06f 00 00000000 80000048 80000040 // j pc - 0x8
00001f17 30 80001040 80000040 80000044 // auipc t5, 0x1
fc3f2023 00 00000000 80000044 80000048 // sw gp, -64(t5)
ff9ff06f 00 00000000 80000048 80000040 // j pc - 0x8
00001f17 30 80001040 80000040 80000044 // auipc t5, 0x1
fc3f2023 00 00000000 80000044 80000048 // sw gp, -64(t5)
ff9ff06f 00 00000000 80000048 80000040 // j pc - 0x8
00001f17 30 80001040 80000040 80000044 // auipc t5, 0x1
fc3f2023 00 00000000 80000044 80000048 // sw gp, -64(t5)
ff9ff06f 00 00000000 80000048 80000040 // j pc - 0x8
00001f17 30 80001040 80000040 80000044 // auipc t5, 0x1
fc3f2023 00 00000000 80000044 80000048 // sw gp, -64(t5)
ff9ff06f 00 00000000 80000048 80000040 // j pc - 0x8
00001f17 30 80001040 80000040 80000044 // auipc t5, 0x1
fc3f2023 00 00000000 80000044 80000048 // sw gp, -64(t5)
ff9ff06f 00 00000000 80000048 80000040 // j pc - 0x8
00001f17 30 80001040 80000040 80000044 // auipc t5, 0x1
fc3f2023 00 00000000 80000044 80000048 // sw gp, -64(t5)
ff9ff06f 00 00000000 80000048 80000040 // j pc - 0x8
00001f17 30 80001040 80000040 80000044 // auipc t5, 0x1
fc3f2023 00 00000000 80000044 80000048 // sw gp, -64(t5)
ff9ff06f 00 00000000 80000048 80000040 // j pc - 0x8
00001f17 30 80001040 80000040 80000044 // auipc t5, 0x1
fc3f2023 00 00000000 80000044 80000048 // sw gp, -64(t5)
ff9ff06f 00 00000000 80000048 80000040 // j pc - 0x8
00001f17 30 80001040 80000040 80000044 // auipc t5, 0x1
fc3f2023 00 00000000 80000044 80000048 // sw gp, -64(t5)
ff9ff06f 00 00000000 80000048 80000040 // j pc - 0x8
00001f17 30 80001040 80000040 80000044 // auipc t5, 0x1
fc3f2023 00 00000000 80000044 80000048 // sw gp, -64(t5)
ff9ff06f 00 00000000 80000048 80000040 // j pc - 0x8
00001f17 30 80001040 80000040 80000044 // auipc t5, 0x1
fc3f2023 00 00000000 80000044 80000048 // sw gp, -64(t5)
ff9ff06f 00 00000000 80000048 80000040 // j pc - 0x8
00001f17 30 80001040 80000040 80000044 // auipc t5, 0x1
fc3f2023 00 00000000 80000044 80000048 // sw gp, -64(t5)
ff9ff06f 00 00000000 80000048 80000040 // j pc - 0x8
00001f17 30 80001040 80000040 80000044 // auipc t5, 0x1
fc3f2023 00 00000000 80000044 80000048 // sw gp, -64(t5)
ff9ff06f 00 00000000 80000048 80000040 // j pc - 0x8
00001f17 30 80001040 80000040 80000044 // auipc t5, 0x1
fc3f2023 00 00000000 80000044 80000048 // sw gp, -64(t5)
ff9ff06f 00 00000000 80000048 80000040 // j pc - 0x8
00001f17 30 80001040 80000040 80000044 // auipc t5, 0x1
fc3f2023 00 00000000 80000044 80000048 // sw gp, -64(t5)
ff9ff06f 00 00000000 80000048 80000040 // j pc - 0x8
00001f17 30 80001040 80000040 80000044 // auipc t5, 0x1
fc3f2023 00 00000000 80000044 80000048 // sw gp, -64(t5)
ff9ff06f 00 00000000 80000048 80000040 // j pc - 0x8
00001f17 30 80001040 80000040 80000044 // auipc t5, 0x1
fc3f2023 00 00000000 80000044 80000048 // sw gp, -64(t5)
ff9ff06f 00 00000000 80000048 80000040 // j pc - 0x8
00001f17 30 80001040 80000040 80000044 // auipc t5, 0x1
fc3f2023 00 00000000 80000044 80000048 // sw gp, -64(t5)
ff9ff06f 00 00000000 80000048 80000040 // j pc - 0x8
00001f17 30 80001040 80000040 80000044 // auipc t5, 0x1
fc3f2023 00 00000000 80000044 80000048 // sw gp, -64(t5)
ff9ff06f 00 00000000 80000048 80000040 // j pc - 0x8
00001f17 30 80001040 80000040 80000044 // auipc t5, 0x1
fc3f2023 00 00000000 80000044 80000048 // sw gp, -64(t5)
ff9ff06f 00 00000000 80000048 80000040 // j pc - 0x8
00001f17 30 80001040 80000040 80000044 // auipc t5, 0x1
fc3f2023 00 00000000 80000044 80000048 // sw gp, -64(t5)
ff9ff06f 00 00000000 80000048 80000040 // j pc - 0x8
00001f17 30 80001040 80000040 80000044 // auipc t5, 0x1
fc3f2023 00 00000000 80000044 80000048 // sw gp, -64(t5)
ff9ff06f 00 00000000 80000048 80000040 // j pc - 0x8
00001f17 30 80001040 80000040 80000044 // auipc t5, 0x1
fc3f2023 00 00000000 80000044 80000048 // sw gp, -64(t5)
ff9ff06f 00 00000000 80000048 80000040 // j pc - 0x8
00001f17 30 80001040 80000040 80000044 // auipc t5, 0x1
fc3f2023 00 00000000 80000044 80000048 // sw gp, -64(t5)
ff9ff06f 00 00000000 80000048 80000040 // j pc - 0x8
00001f17 30 80001040 80000040 80000044 // auipc t5, 0x1
fc3f2023 00 00000000 80000044 80000048 // sw gp, -64(t5)
ff9ff06f 00 00000000 80000048 80000040 // j pc - 0x8
00001f17 30 80001040 80000040 80000044 // auipc t5, 0x1
fc3f2023 00 00000000 80000044 80000048 // sw gp, -64(t5)
ff9ff06f 00 00000000 80000048 80000040 // j pc - 0x8
00001f17 30 80001040 80000040 80000044 // auipc t5, 0x1
fc3f2023 00 00000000 80000044 80000048 // sw gp, -64(t5)
ff9ff06f 00 00000000 80000048 80000040 // j pc - 0x8
00001f17 30 80001040 80000040 80000044 // auipc t5, 0x1
fc3f2023 00 00000000 80000044 80000048 // sw gp, -64(t5)
ff9ff06f 00 00000000 80000048 80000040 // j pc - 0x8
00001f17 30 80001040 80000040 80000044 // auipc t5, 0x1
fc3f2023 00 00000000 80000044 80000048 // sw gp, -64(t5)
ff9ff06f 00 00000000 80000048 80000040 // j pc - 0x8
00001f17 30 80001040 80000040 80000044 // auipc t5, 0x1
fc3f2023 00 00000000 80000044 80000048 // sw gp, -64(t5)
ff9ff06f 00 00000000 80000048 80000040 // j pc - 0x8
00001f17 30 80001040 80000040 80000044 // auipc t5, 0x1
fc3f2023 00 00000000 80000044 80000048 // sw gp, -64(t5)
ff9ff06f 00 00000000 80000048 80000040 // j pc - 0x8
00001f17 30 80001040 80000040 80000044 // auipc t5, 0x1
fc3f2023 00 00000000 80000044 80000048 // sw gp, -64(t5)
ff9ff06f 00 00000000 80000048 80000040 // j pc - 0x8
00001f17 30 80001040 80000040 80000044 // auipc t5, 0x1
fc3f2023 00 00000000 80000044 80000048 // sw gp, -64(t5)
ff9ff06f 00 00000000 80000048 80000040 // j pc - 0x8
00001f17 30 80001040 80000040 80000044 // auipc t5, 0x1
fc3f2023 00 00000000 80000044 80000048 // sw gp, -64(t5)
ff9ff06f 00 00000000 80000048 80000040 // j pc - 0x8
00001f17 30 80001040 80000040 80000044 // auipc t5, 0x1
fc3f2023 00 00000000 80000044 80000048 // sw gp, -64(t5)
ff9ff06f 00 00000000 80000048 80000040 // j pc - 0x8
00001f17 30 80001040 80000040 80000044 // auipc t5, 0x1
fc3f2023 00 00000000 80000044 80000048 // sw gp, -64(t5)
ff9ff06f 00 00000000 80000048 80000040 // j pc - 0x8
00001f17 30 80001040 80000040 80000044 // auipc t5, 0x1
fc3f2023 00 00000000 80000044 80000048 // sw gp, -64(t5)
ff9ff06f 00 00000000 80000048 80000040 // j pc - 0x8
00001f17 30 80001040 80000040 80000044 // auipc t5, 0x1
fc3f2023 00 00000000 80000044 80000048 // sw gp, -64(t5)
ff9ff06f 00 00000000 80000048 80000040 // j pc - 0x8
00001f17 30 80001040 80000040 80000044 // auipc t5, 0x1
fc3f2023 00 00000000 80000044 80000048 // sw gp, -64(t5)
ff9ff06f 00 00000000 80000048 80000040 // j pc - 0x8
00001f17 30 80001040 80000040 80000044 // auipc t5, 0x1
fc3f2023 00 00000000 80000044 80000048 // sw gp, -64(t5)
ff9ff06f 00 00000000 80000048 80000040 // j pc - 0x8
00001f17 30 80001040 80000040 80000044 // auipc t5, 0x1
fc3f2023 00 00000000 80000044 80000048 // sw gp, -64(t5)
ff9ff06f 00 00000000 80000048 80000040 // j pc - 0x8
00001f17 30 80001040 80000040 80000044 // auipc t5, 0x1
fc3f2023 00 00000000 80000044 80000048 // sw gp, -64(t5)
ff9ff06f 00 00000000 80000048 80000040 // j pc - 0x8
00001f17 30 80001040 80000040 80000044 // auipc t5, 0x1
fc3f2023 00 00000000 80000044 80000048 // sw gp, -64(t5)
ff9ff06f 00 00000000 80000048 80000040 // j pc - 0x8
00001f17 30 80001040 80000040 80000044 // auipc t5, 0x1
fc3f2023 00 00000000 80000044 80000048 // sw gp, -64(t5)
ff9ff06f 00 00000000 80000048 80000040 // j pc - 0x8
00001f17 30 80001040 80000040 80000044 // auipc t5, 0x1
fc3f2023 00 00000000 80000044 80000048 // sw gp, -64(t5)
ff9ff06f 00 00000000 80000048 80000040 // j pc - 0x8
00001f17 30 80001040 80000040 80000044 // auipc t5, 0x1
fc3f2023 00 00000000 80000044 80000048 // sw gp, -64(t5)
ff9ff06f 00 00000000 80000048 80000040 // j pc - 0x8
00001f17 30 80001040 80000040 80000044 // auipc t5, 0x1
fc3f2023 00 00000000 80000044 80000048 // sw gp, -64(t5)
ff9ff06f 00 00000000 80000048 80000040 // j pc - 0x8
00001f17 30 80001040 80000040 80000044 // auipc t5, 0x1
fc3f2023 00 00000000 80000044 80000048 // sw gp, -64(t5)
ff9ff06f 00 00000000 80000048 80000040 // j pc - 0x8
00001f17 30 80001040 80000040 80000044 // auipc t5, 0x1
fc3f2023 00 00000000 80000044 80000048 // sw gp, -64(t5)
ff9ff06f 00 00000000 80000048 80000040 // j pc - 0x8
00001f17 30 80001040 80000040 80000044 // auipc t5, 0x1
fc3f2023 00 00000000 80000044 80000048 // sw gp, -64(t5)
ff9ff06f 00 00000000 80000048 80000040 // j pc - 0x8
00001f17 30 80001040 80000040 80000044 // auipc t5, 0x1
fc3f2023 00 00000000 80000044 80000048 // sw gp, -64(t5)
ff9ff06f 00 00000000 80000048 80000040 // j pc - 0x8
00001f17 30 80001040 80000040 80000044 // auipc t5, 0x1
fc3f2023 00 00000000 80000044 80000048 // sw gp, -64(t5)
ff9ff06f 00 00000000 80000048 80000040 // j pc - 0x8
00001f17 30 80001040 80000040 80000044 // auipc t5, 0x1
fc3f2023 00 00000000 80000044 80000048 // sw gp, -64(t5)
ff9ff06f 00 00000000 80000048 80000040 // j pc - 0x8
00001f17 30 80001040 80000040 80000044 // auipc t5, 0x1
fc3f2023 00 00000000 80000044 80000048 // sw gp, -64(t5)
ff9ff06f 00 00000000 80000048 80000040 // j pc - 0x8
00001f17 30 80001040 80000040 80000044 // auipc t5, 0x1
fc3f2023 00 00000000 80000044 80000048 // sw gp, -64(t5)
ff9ff06f 00 00000000 80000048 80000040 // j pc - 0x8
00001f17 30 80001040 80000040 80000044 // auipc t5, 0x1
fc3f2023 00 00000000 80000044 80000048 // sw gp, -64(t5)
ff9ff06f 00 00000000 80000048 80000040 // j pc - 0x8
00001f17 30 80001040 80000040 80000044 // auipc t5, 0x1
fc3f2023 00 00000000 80000044 80000048 // sw gp, -64(t5)
ff9ff06f 00 00000000 80000048 80000040 // j pc - 0x8
00001f17 30 80001040 80000040 80000044 // auipc t5, 0x1
fc3f2023 00 00000000 80000044 80000048 // sw gp, -64(t5)
ff9ff06f 00 00000000 80000048 80000040 // j pc - 0x8
00001f17 30 80001040 80000040 80000044 // auipc t5, 0x1
fc3f2023 00 00000000 80000044 80000048 // sw gp, -64(t5)
ff9ff06f 00 00000000 80000048 80000040 // j pc - 0x8
00001f17 30 80001040 80000040 80000044 // auipc t5, 0x1
fc3f2023 00 00000000 80000044 80000048 // sw gp, -64(t5)
ff9ff06f 00 00000000 80000048 80000040 // j pc - 0x8
00001f17 30 80001040 80000040 80000044 // auipc t5, 0x1
fc3f2023 00 00000000 80000044 80000048 // sw gp, -64(t5)
ff9ff06f 00 00000000 80000048 80000040 // j pc - 0x8
00001f17 30 80001040 80000040 80000044 // auipc t5, 0x1
fc3f2023 00 00000000 80000044 80000048 // sw gp, -64(t5)
ff9ff06f 00 00000000 80000048 80000040 // j pc - 0x8
00001f17 30 80001040 80000040 80000044 // auipc t5, 0x1
fc3f2023 00 00000000 80000044 80000048 // sw gp, -64(t5)
ff9ff06f 00 00000000 80000048 80000040 // j pc - 0x8
00001f17 30 80001040 80000040 80000044 // auipc t5, 0x1
fc3f2023 00 00000000 80000044 80000048 // sw gp, -64(t5)
ff9ff06f 00 00000000 80000048 80000040 // j pc - 0x8
00001f17 30 80001040 80000040 80000044 // auipc t5, 0x1
fc3f2023 00 00000000 80000044 80000048 // sw gp, -64(t5)
ff9ff06f 00 00000000 80000048 80000040 // j pc - 0x8
00001f17 30 80001040 80000040 80000044 // auipc t5, 0x1
fc3f2023 00 00000000 80000044 80000048 // sw gp, -64(t5)
ff9ff06f 00 00000000 80000048 80000040 // j pc - 0x8
00001f17 30 80001040 80000040 80000044 // auipc t5, 0x1
fc3f2023 00 00000000 80000044 80000048 // sw gp, -64(t5)
ff9ff06f 00 00000000 80000048 80000040 // j pc - 0x8
00001f17 30 80001040 80000040 80000044 // auipc t5, 0x1
fc3f2023 00 00000000 80000044 80000048 // sw gp, -64(t5)
ff9ff06f 00 00000000 80000048 80000040 // j pc - 0x8
00001f17 30 80001040 80000040 80000044 // auipc t5, 0x1
fc3f2023 00 00000000 80000044 80000048 // sw gp, -64(t5)
ff9ff06f 00 00000000 80000048 80000040 // j pc - 0x8
00001f17 30 80001040 80000040 80000044 // auipc t5, 0x1
fc3f2023 00 00000000 80000044 80000048 // sw gp, -64(t5)
ff9ff06f 00 00000000 80000048 80000040 // j pc - 0x8
00001f17 30 80001040 80000040 80000044 // auipc t5, 0x1
fc3f2023 00 00000000 80000044 80000048 // sw gp, -64(t5)
ff9ff06f 00 00000000 80000048 80000040 // j pc - 0x8
00001f17 30 80001040 80000040 80000044 // auipc t5, 0x1
fc3f2023 00 00000000 80000044 80000048 // sw gp, -64(t5)
ff9ff06f 00 00000000 80000048 80000040 // j pc - 0x8
00001f17 30 80001040 80000040 80000044 // auipc t5, 0x1
fc3f2023 00 00000000 80000044 80000048 // sw gp, -64(t5)
ff9ff06f 00 00000000 80000048 80000040 // j pc - 0x8
00001f17 30 80001040 80000040 80000044 // auipc t5, 0x1
fc3f2023 00 00000000 80000044 80000048 // sw gp, -64(t5)
ff9ff06f 00 00000000 80000048 80000040 // j pc - 0x8
00001f17 30 80001040 80000040 80000044 // auipc t5, 0x1
fc3f2023 00 00000000 80000044 80000048 // sw gp, -64(t5)
ff9ff06f 00 00000000 80000048 80000040 // j pc - 0x8
00001f17 30 80001040 80000040 80000044 // auipc t5, 0x1
fc3f2023 00 00000000 80000044 80000048 // sw gp, -64(t5)
ff9ff06f 00 00000000 80000048 80000040 // j pc - 0x8
00001f17 30 80001040 80000040 80000044 // auipc t5, 0x1
fc3f2023 00 00000000 80000044 80000048 // sw gp, -64(t5)
ff9ff06f 00 00000000 80000048 80000040 // j pc - 0x8
00001f17 30 80001040 80000040 80000044 // auipc t5, 0x1
fc3f2023 00 00000000 80000044 80000048 // sw gp, -64(t5)
ff9ff06f 00 00000000 80000048 80000040 // j pc - 0x8
00001f17 30 80001040 80000040 80000044 // auipc t5, 0x1
fc3f2023 00 00000000 80000044 80000048 // sw gp, -64(t5)
ff9ff06f 00 00000000 80000048 80000040 // j pc - 0x8
00001f17 30 80001040 80000040 80000044 // auipc t5, 0x1
fc3f2023 00 00000000 80000044 80000048 // sw gp, -64(t5)
ff9ff06f 00 00000000 80000048 80000040 // j pc - 0x8
00001f17 30 80001040 80000040 80000044 // auipc t5, 0x1
fc3f2023 00 00000000 80000044 80000048 // sw gp, -64(t5)
ff9ff06f 00 00000000 80000048 80000040 // j pc - 0x8
00001f17 30 80001040 80000040 80000044 // auipc t5, 0x1
fc3f2023 00 00000000 80000044 80000048 // sw gp, -64(t5)
ff9ff06f 00 00000000 80000048 80000040 // j pc - 0x8
00001f17 30 80001040 80000040 80000044 // auipc t5, 0x1
fc3f2023 00 00000000 80000044 80000048 // sw gp, -64(t5)
ff9ff06f 00 00000000 80000048 80000040 // j pc - 0x8
00001f17 30 80001040 80000040 80000044 // auipc t5, 0x1
fc3f2023 00 00000000 80000044 80000048 // sw gp, -64(t5)
ff9ff06f 00 00000000 80000048 80000040 // j pc - 0x8
00001f17 30 80001040 80000040 80000044 // auipc t5, 0x1
fc3f2023 00 00000000 80000044 80000048 // sw gp, -64(t5)
ff9ff06f 00 00000000 80000048 80000040 // j pc - 0x8
00001f17 30 80001040 80000040 80000044 // auipc t5, 0x1
fc3f2023 00 00000000 80000044 80000048 // sw gp, -64(t5)
ff9ff06f 00 00000000 80000048 80000040 // j pc - 0x8
00001f17 30 80001040 80000040 80000044 // auipc t5, 0x1
fc3f2023 00 00000000 80000044 80000048 // sw gp, -64(t5)
ff9ff06f 00 00000000 80000048 80000040 // j pc - 0x8
00001f17 30 80001040 80000040 80000044 // auipc t5, 0x1
fc3f2023 00 00000000 80000044 80000048 // sw gp, -64(t5)
ff9ff06f 00 00000000 80000048 80000040 // j pc - 0x8
00001f17 30 80001040 80000040 80000044 // auipc t5, 0x1
fc3f2023 00 00000000 80000044 80000048 // sw gp, -64(t5)
ff9ff06f 00 00000000 80000048 80000040 // j pc - 0x8
00001f17 30 80001040 80000040 80000044 // auipc t5, 0x1
fc3f2023 00 00000000 80000044 80000048 // sw gp, -64(t5)
ff9ff06f 00 00000000 80000048 80000040 // j pc - 0x8
00001f17 30 80001040 80000040 80000044 // auipc t5, 0x1
fc3f2023 00 00000000 80000044 80000048 // sw gp, -64(t5)
ff9ff06f 00 00000000 80000048 80000040 // j pc - 0x8
00001f17 30 80001040 80000040 80000044 // auipc t5, 0x1
fc3f2023 00 00000000 80000044 80000048 // sw gp, -64(t5)
ff9ff06f 00 00000000 80000048 80000040 // j pc - 0x8
00001f17 30 80001040 80000040 80000044 // auipc t5, 0x1
fc3f2023 00 00000000 80000044 80000048 // sw gp, -64(t5)
ff9ff06f 00 00000000 80000048 80000040 // j pc - 0x8
00001f17 30 80001040 80000040 80000044 // auipc t5, 0x1
fc3f2023 00 00000000 80000044 80000048 // sw gp, -64(t5)
ff9ff06f 00 00000000 80000048 80000040 // j pc - 0x8
00001f17 30 80001040 80000040 80000044 // auipc t5, 0x1
fc3f2023 00 00000000 80000044 80000048 // sw gp, -64(t5)
ff9ff06f 00 00000000 80000048 80000040 // j pc - 0x8
00001f17 30 80001040 80000040 80000044 // auipc t5, 0x1
fc3f2023 00 00000000 80000044 80000048 // sw gp, -64(t5)
ff9ff06f 00 00000000 80000048 80000040 // j pc - 0x8
00001f17 30 80001040 80000040 80000044 // auipc t5, 0x1
fc3f2023 00 00000000 80000044 80000048 // sw gp, -64(t5)
ff9ff06f 00 00000000 80000048 80000040 // j pc - 0x8
00001f17 30 80001040 80000040 80000044 // auipc t5, 0x1
fc3f2023 00 00000000 80000044 80000048 // sw gp, -64(t5)
ff9ff06f 00 00000000 80000048 80000040 // j pc - 0x8
00001f17 30 80001040 80000040 80000044 // auipc t5, 0x1
fc3f2023 00 00000000 80000044 80000048 // sw gp, -64(t5)
ff9ff06f 00 00000000 80000048 80000040 // j pc - 0x8
00001f17 30 80001040 80000040 80000044 // auipc t5, 0x1
fc3f2023 00 00000000 80000044 80000048 // sw gp, -64(t5)
ff9ff06f 00 00000000 80000048 80000040 // j pc - 0x8
00001f17 30 80001040 80000040 80000044 // auipc t5, 0x1
fc3f2023 00 00000000 80000044 80000048 // sw gp, -64(t5)
ff9ff06f 00 00000000 80000048 80000040 // j pc - 0x8
00001f17 30 80001040 80000040 80000044 // auipc t5, 0x1
fc3f2023 00 00000000 80000044 80000048 // sw gp, -64(t5)
ff9ff06f 00 00000000 80000048 80000040 // j pc - 0x8
00001f17 30 80001040 80000040 80000044 // auipc t5, 0x1
fc3f2023 00 00000000 80000044 80000048 // sw gp, -64(t5)
ff9ff06f 00 00000000 80000048 80000040 // j pc - 0x8
00001f17 30 80001040 80000040 80000044 // auipc t5, 0x1
fc3f2023 00 00000000 80000044 80000048 // sw gp, -64(t5)
ff9ff06f 00 00000000 80000048 80000040 // j pc - 0x8
00001f17 30 80001040 80000040 80000044 // auipc t5, 0x1
fc3f2023 00 00000000 80000044 80000048 // sw gp, -64(t5)
ff9ff06f 00 00000000 80000048 80000040 // j pc - 0x8
00001f17 30 80001040 80000040 80000044 // auipc t5, 0x1
fc3f2023 00 00000000 80000044 80000048 // sw gp, -64(t5)
ff9ff06f 00 00000000 80000048 80000040 // j pc - 0x8
00001f17 30 80001040 80000040 80000044 // auipc t5, 0x1
fc3f2023 00 00000000 80000044 80000048 // sw gp, -64(t5)
ff9ff06f 00 00000000 80000048 80000040 // j pc - 0x8
00001f17 30 80001040 80000040 80000044 // auipc t5, 0x1
fc3f2023 00 00000000 80000044 80000048 // sw gp, -64(t5)
ff9ff06f 00 00000000 80000048 80000040 // j pc - 0x8
00001f17 30 80001040 80000040 80000044 // auipc t5, 0x1
fc3f2023 00 00000000 80000044 80000048 // sw gp, -64(t5)
ff9ff06f 00 00000000 80000048 80000040 // j pc - 0x8
00001f17 30 80001040 80000040 80000044 // auipc t5, 0x1
fc3f2023 00 00000000 80000044 80000048 // sw gp, -64(t5)
ff9ff06f 00 00000000 80000048 80000040 // j pc - 0x8
00001f17 30 80001040 80000040 80000044 // auipc t5, 0x1
fc3f2023 00 00000000 80000044 80000048 // sw gp, -64(t5)
ff9ff06f 00 00000000 80000048 80000040 // j pc - 0x8
00001f17 30 80001040 80000040 80000044 // auipc t5, 0x1
fc3f2023 00 00000000 80000044 80000048 // sw gp, -64(t5)
ff9ff06f 00 00000000 80000048 80000040 // j pc - 0x8
00001f17 30 80001040 80000040 80000044 // auipc t5, 0x1
fc3f2023 00 00000000 80000044 80000048 // sw gp, -64(t5)
ff9ff06f 00 00000000 80000048 80000040 // j pc - 0x8
00001f17 30 80001040 80000040 80000044 // auipc t5, 0x1
fc3f2023 00 00000000 80000044 80000048 // sw gp, -64(t5)
ff9ff06f 00 00000000 80000048 80000040 // j pc - 0x8
00001f17 30 80001040 80000040 80000044 // auipc t5, 0x1
fc3f2023 00 00000000 80000044 80000048 // sw gp, -64(t5)
ff9ff06f 00 00000000 80000048 80000040 // j pc - 0x8
00001f17 30 80001040 80000040 80000044 // auipc t5, 0x1
fc3f2023 00 00000000 80000044 80000048 // sw gp, -64(t5)
ff9ff06f 00 00000000 80000048 80000040 // j pc - 0x8
00001f17 30 80001040 80000040 80000044 // auipc t5, 0x1
fc3f2023 00 00000000 80000044 80000048 // sw gp, -64(t5)
ff9ff06f 00 00000000 80000048 80000040 // j pc - 0x8
00001f17 30 80001040 80000040 80000044 // auipc t5, 0x1
fc3f2023 00 00000000 80000044 80000048 // sw gp, -64(t5)
ff9ff06f 00 00000000 80000048 80000040 // j pc - 0x8
00001f17 30 80001040 80000040 80000044 // auipc t5, 0x1
fc3f2023 00 00000000 80000044 80000048 // sw gp, -64(t5)
ff9ff06f 00 00000000 80000048 80000040 // j pc - 0x8
00001f17 30 80001040 80000040 80000044 // auipc t5, 0x1
fc3f2023 00 00000000 80000044 80000048 // sw gp, -64(t5)
ff9ff06f 00 00000000 80000048 80000040 // j pc - 0x8
00001f17 30 80001040 80000040 80000044 // auipc t5, 0x1
fc3f2023 00 00000000 80000044 80000048 // sw gp, -64(t5)
ff9ff06f 00 00000000 80000048 80000040 // j pc - 0x8
00001f17 30 80001040 80000040 80000044 // auipc t5, 0x1
fc3f2023 00 00000000 80000044 80000048 // sw gp, -64(t5)
ff9ff06f 00 00000000 80000048 80000040 // j pc - 0x8
00001f17 30 80001040 80000040 80000044 // auipc t5, 0x1
fc3f2023 00 00000000 80000044 80000048 // sw gp, -64(t5)
ff9ff06f 00 00000000 80000048 80000040 // j pc - 0x8
00001f17 30 80001040 80000040 80000044 // auipc t5, 0x1
fc3f2023 00 00000000 80000044 80000048 // sw gp, -64(t5)
ff9ff06f 00 00000000 80000048 80000040 // j pc - 0x8
00001f17 30 80001040 80000040 80000044 // auipc t5, 0x1
fc3f2023 00 00000000 80000044 80000048 // sw gp, -64(t5)
ff9ff06f 00 00000000 80000048 80000040 // j pc - 0x8
00001f17 30 80001040 80000040 80000044 // auipc t5, 0x1
fc3f2023 00 00000000 80000044 80000048 // sw gp, -64(t5)
ff9ff06f 00 00000000 80000048 80000040 // j pc - 0x8
00001f17 30 80001040 80000040 80000044 // auipc t5, 0x1
fc3f2023 00 00000000 80000044 80000048 // sw gp, -64(t5)
ff9ff06f 00 00000000 80000048 80000040 // j pc - 0x8
00001f17 30 80001040 80000040 80000044 // auipc t5, 0x1
fc3f2023 00 00000000 80000044 80000048 // sw gp, -64(t5)
ff9ff06f 00 00000000 80000048 80000040 // j pc - 0x8
00001f17 30 80001040 80000040 80000044 // auipc t5, 0x1
fc3f2023 00 00000000 80000044 80000048 // sw gp, -64(t5)
ff9ff06f 00 00000000 80000048 80000040 // j pc - 0x8
00001f17 30 80001040 80000040 80000044 // auipc t5, 0x1
fc3f2023 00 00000000 80000044 80000048 // sw gp, -64(t5)
ff9ff06f 00 00000000 80000048 80000040 // j pc - 0x8
00001f17 30 80001040 80000040 80000044 // auipc t5, 0x1
fc3f2023 00 00000000 80000044 80000048 // sw gp, -64(t5)
ff9ff06f 00 00000000 80000048 80000040 // j pc - 0x8
00001f17 30 80001040 80000040 80000044 // auipc t5, 0x1
fc3f2023 00 00000000 80000044 80000048 // sw gp, -64(t5)
ff9ff06f 00 00000000 80000048 80000040 // j pc - 0x8
00001f17 30 80001040 80000040 80000044 // auipc t5, 0x1
fc3f2023 00 00000000 80000044 80000048 // sw gp, -64(t5)
ff9ff06f 00 00000000 80000048 80000040 // j pc - 0x8
00001f17 30 80001040 80000040 80000044 // auipc t5, 0x1
fc3f2023 00 00000000 80000044 80000048 // sw gp, -64(t5)
ff9ff06f 00 00000000 80000048 80000040 // j pc - 0x8
00001f17 30 80001040 80000040 80000044 // auipc t5, 0x1
fc3f2023 00 00000000 80000044 80000048 // sw gp, -64(t5)
ff9ff06f 00 00000000 80000048 80000040 // j pc - 0x8
00001f17 30 80001040 80000040 80000044 // auipc t5, 0x1
fc3f2023 00 00000000 80000044 80000048 // sw gp, -64(t5)
ff9ff06f 00 00000000 80000048 80000040 // j pc - 0x8
00001f17 30 80001040 80000040 80000044 // auipc t5, 0x1
fc3f2023 00 00000000 80000044 80000048 // sw gp, -64(t5)
ff9ff06f 00 00000000 80000048 80000040 // j pc - 0x8
00001f17 30 80001040 80000040 80000044 // auipc t5, 0x1
fc3f2023 00 00000000 80000044 80000048 // sw gp, -64(t5)
ff9ff06f 00 00000000 80000048 80000040 // j pc - 0x8
00001f17 30 80001040 80000040 80000044 // auipc t5, 0x1
fc3f2023 00 00000000 80000044 80000048 // sw gp, -64(t5)
ff9ff06f 00 00000000 80000048 80000040 // j pc - 0x8
00001f17 30 80001040 80000040 80000044 // auipc t5, 0x1
fc3f2023 00 00000000 80000044 80000048 // sw gp, -64(t5)
ff9ff06f 00 00000000 80000048 80000040 // j pc - 0x8
00001f17 30 80001040 80000040 80000044 // auipc t5, 0x1
fc3f2023 00 00000000 80000044 80000048 // sw gp, -64(t5)
ff9ff06f 00 00000000 80000048 80000040 // j pc - 0x8
00001f17 30 80001040 80000040 80000044 // auipc t5, 0x1
fc3f2023 00 00000000 80000044 80000048 // sw gp, -64(t5)
ff9ff06f 00 00000000 80000048 80000040 // j pc - 0x8
00001f17 30 80001040 80000040 80000044 // auipc t5, 0x1
fc3f2023 00 00000000 80000044 80000048 // sw gp, -64(t5)
ff9ff06f 00 00000000 80000048 80000040 // j pc - 0x8
00001f17 30 80001040 80000040 80000044 // auipc t5, 0x1
fc3f2023 00 00000000 80000044 80000048 // sw gp, -64(t5)
ff9ff06f 00 00000000 80000048 80000040 // j pc - 0x8
00001f17 30 80001040 80000040 80000044 // auipc t5, 0x1
fc3f2023 00 00000000 80000044 80000048 // sw gp, -64(t5)
ff9ff06f 00 00000000 80000048 80000040 // j pc - 0x8
00001f17 30 80001040 80000040 80000044 // auipc t5, 0x1
fc3f2023 00 00000000 80000044 80000048 // sw gp, -64(t5)
ff9ff06f 00 00000000 80000048 80000040 // j pc - 0x8
00001f17 30 80001040 80000040 80000044 // auipc t5, 0x1
fc3f2023 00 00000000 80000044 80000048 // sw gp, -64(t5)
ff9ff06f 00 00000000 80000048 80000040 // j pc - 0x8
00001f17 30 80001040 80000040 80000044 // auipc t5, 0x1
fc3f2023 00 00000000 80000044 80000048 // sw gp, -64(t5)
ff9ff06f 00 00000000 80000048 80000040 // j pc - 0x8
00001f17 30 80001040 80000040 80000044 // auipc t5, 0x1
fc3f2023 00 00000000 80000044 80000048 // sw gp, -64(t5)
ff9ff06f 00 00000000 80000048 80000040 // j pc - 0x8
00001f17 30 80001040 80000040 80000044 // auipc t5, 0x1
fc3f2023 00 00000000 80000044 80000048 // sw gp, -64(t5)
ff9ff06f 00 00000000 80000048 80000040 // j pc - 0x8
00001f17 30 80001040 80000040 80000044 // auipc t5, 0x1
fc3f2023 00 00000000 80000044 80000048 // sw gp, -64(t5)
ff9ff06f 00 00000000 80000048 80000040 // j pc - 0x8
00001f17 30 80001040 80000040 80000044 // auipc t5, 0x1
fc3f2023 00 00000000 80000044 80000048 // sw gp, -64(t5)
ff9ff06f 00 00000000 80000048 80000040 // j pc - 0x8
00001f17 30 80001040 80000040 80000044 // auipc t5, 0x1
fc3f2023 00 00000000 80000044 80000048 // sw gp, -64(t5)
ff9ff06f 00 00000000 80000048 80000040 // j pc - 0x8
00001f17 30 80001040 80000040 80000044 // auipc t5, 0x1
fc3f2023 00 00000000 80000044 80000048 // sw gp, -64(t5)
ff9ff06f 00 00000000 80000048 80000040 // j pc - 0x8
00001f17 30 80001040 80000040 80000044 // auipc t5, 0x1
fc3f2023 00 00000000 80000044 80000048 // sw gp, -64(t5)
ff9ff06f 00 00000000 80000048 80000040 // j pc - 0x8
00001f17 30 80001040 80000040 80000044 // auipc t5, 0x1
fc3f2023 00 00000000 80000044 80000048 // sw gp, -64(t5)
ff9ff06f 00 00000000 80000048 80000040 // j pc - 0x8
00001f17 30 80001040 80000040 80000044 // auipc t5, 0x1
fc3f2023 00 00000000 80000044 80000048 // sw gp, -64(t5)
ff9ff06f 00 00000000 80000048 80000040 // j pc - 0x8
00001f17 30 80001040 80000040 80000044 // auipc t5, 0x1
fc3f2023 00 00000000 80000044 80000048 // sw gp, -64(t5)
ff9ff06f 00 00000000 80000048 80000040 // j pc - 0x8
00001f17 30 80001040 80000040 80000044 // auipc t5, 0x1
fc3f2023 00 00000000 80000044 80000048 // sw gp, -64(t5)
ff9ff06f 00 00000000 80000048 80000040 // j pc - 0x8
00001f17 30 80001040 80000040 80000044 // auipc t5, 0x1
fc3f2023 00 00000000 80000044 80000048 // sw gp, -64(t5)
ff9ff06f 00 00000000 80000048 80000040 // j pc - 0x8
00001f17 30 80001040 80000040 80000044 // auipc t5, 0x1
fc3f2023 00 00000000 80000044 80000048 // sw gp, -64(t5)
ff9ff06f 00 00000000 80000048 80000040 // j pc - 0x8
00001f17 30 80001040 80000040 80000044 // auipc t5, 0x1
fc3f2023 00 00000000 80000044 80000048 // sw gp, -64(t5)
ff9ff06f 00 00000000 80000048 80000040 // j pc - 0x8
00001f17 30 80001040 80000040 80000044 // auipc t5, 0x1
fc3f2023 00 00000000 80000044 80000048 // sw gp, -64(t5)
ff9ff06f 00 00000000 80000048 80000040 // j pc - 0x8
00001f17 30 80001040 80000040 80000044 // auipc t5, 0x1
fc3f2023 00 00000000 80000044 80000048 // sw gp, -64(t5)
ff9ff06f 00 00000000 80000048 80000040 // j pc - 0x8
00001f17 30 80001040 80000040 80000044 // auipc t5, 0x1
fc3f2023 00 00000000 80000044 80000048 // sw gp, -64(t5)
ff9ff06f 00 00000000 80000048 80000040 // j pc - 0x8
00001f17 30 80001040 80000040 80000044 // auipc t5, 0x1
fc3f2023 00 00000000 80000044 80000048 // sw gp, -64(t5)
ff9ff06f 00 00000000 80000048 80000040 // j pc - 0x8
00001f17 30 80001040 80000040 80000044 // auipc t5, 0x1
fc3f2023 00 00000000 80000044 80000048 // sw gp, -64(t5)
ff9ff06f 00 00000000 80000048 80000040 // j pc - 0x8
00001f17 30 80001040 80000040 80000044 // auipc t5, 0x1
fc3f2023 00 00000000 80000044 80000048 // sw gp, -64(t5)
ff9ff06f 00 00000000 80000048 80000040 // j pc - 0x8
00001f17 30 80001040 80000040 80000044 // auipc t5, 0x1
fc3f2023 00 00000000 80000044 80000048 // sw gp, -64(t5)
ff9ff06f 00 00000000 80000048 80000040 // j pc - 0x8
00001f17 30 80001040 80000040 80000044 // auipc t5, 0x1
fc3f2023 00 00000000 80000044 80000048 // sw gp, -64(t5)
ff9ff06f 00 00000000 80000048 80000040 // j pc - 0x8
00001f17 30 80001040 80000040 80000044 // auipc t5, 0x1
fc3f2023 00 00000000 80000044 80000048 // sw gp, -64(t5)
ff9ff06f 00 00000000 80000048 80000040 // j pc - 0x8
00001f17 30 80001040 80000040 80000044 // auipc t5, 0x1
fc3f2023 00 00000000 80000044 80000048 // sw gp, -64(t5)
ff9ff06f 00 00000000 80000048 80000040 // j pc - 0x8
00001f17 30 80001040 80000040 80000044 // auipc t5, 0x1
fc3f2023 00 00000000 80000044 80000048 // sw gp, -64(t5)
ff9ff06f 00 00000000 80000048 80000040 // j pc - 0x8
00001f17 30 80001040 80000040 80000044 // auipc t5, 0x1
fc3f2023 00 00000000 80000044 80000048 // sw gp, -64(t5)
ff9ff06f 00 00000000 80000048 80000040 // j pc - 0x8
00001f17 30 80001040 80000040 80000044 // auipc t5, 0x1
fc3f2023 00 00000000 80000044 80000048 // sw gp, -64(t5)
ff9ff06f 00 00000000 80000048 80000040 // j pc - 0x8
00001f17 30 80001040 80000040 80000044 // auipc t5, 0x1
fc3f2023 00 00000000 80000044 80000048 // sw gp, -64(t5)
ff9ff06f 00 00000000 80000048 80000040 // j pc - 0x8
00001f17 30 80001040 80000040 80000044 // auipc t5, 0x1
fc3f2023 00 00000000 80000044 80000048 // sw gp, -64(t5)
ff9ff06f 00 00000000 80000048 80000040 // j pc - 0x8
00001f17 30 80001040 80000040 80000044 // auipc t5, 0x1
fc3f2023 00 00000000 80000044 80000048 // sw gp, -64(t5)
ff9ff06f 00 00000000 80000048 80000040 // j pc - 0x8
00001f17 30 80001040 80000040 80000044 // auipc t5, 0x1
fc3f2023 00 00000000 80000044 80000048 // sw gp, -64(t5)
ff9ff06f 00 00000000 80000048 80000040 // j pc - 0x8
00001f17 30 80001040 80000040 80000044 // auipc t5, 0x1
fc3f2023 00 00000000 80000044 80000048 // sw gp, -64(t5)
ff9ff06f 00 00000000 80000048 80000040 // j pc - 0x8
00001f17 30 80001040 80000040 80000044 // auipc t5, 0x1
fc3f2023 00 00000000 80000044 80000048 // sw gp, -64(t5)
ff9ff06f 00 00000000 80000048 80000040 // j pc - 0x8
00001f17 30 80001040 80000040 80000044 // auipc t5, 0x1
fc3f2023 00 00000000 80000044 80000048 // sw gp, -64(t5)
ff9ff06f 00 00000000 80000048 80000040 // j pc - 0x8
00001f17 30 80001040 80000040 80000044 // auipc t5, 0x1
fc3f2023 00 00000000 80000044 80000048 // sw gp, -64(t5)
ff9ff06f 00 00000000 80000048 80000040 // j pc - 0x8
00001f17 30 80001040 80000040 80000044 // auipc t5, 0x1
fc3f2023 00 00000000 80000044 80000048 // sw gp, -64(t5)
ff9ff06f 00 00000000 80000048 80000040 // j pc - 0x8
00001f17 30 80001040 80000040 80000044 // auipc t5, 0x1
fc3f2023 00 00000000 80000044 80000048 // sw gp, -64(t5)
ff9ff06f 00 00000000 80000048 80000040 // j pc - 0x8
00001f17 30 80001040 80000040 80000044 // auipc t5, 0x1
fc3f2023 00 00000000 80000044 80000048 // sw gp, -64(t5)
ff9ff06f 00 00000000 80000048 80000040 // j pc - 0x8
00001f17 30 80001040 80000040 80000044 // auipc t5, 0x1
fc3f2023 00 00000000 80000044 80000048 // sw gp, -64(t5)
ff9ff06f 00 00000000 80000048 80000040 // j pc - 0x8
00001f17 30 80001040 80000040 80000044 // auipc t5, 0x1
fc3f2023 00 00000000 80000044 80000048 // sw gp, -64(t5)
ff9ff06f 00 00000000 80000048 80000040 // j pc - 0x8
00001f17 30 80001040 80000040 80000044 // auipc t5, 0x1
fc3f2023 00 00000000 80000044 80000048 // sw gp, -64(t5)
ff9ff06f 00 00000000 80000048 80000040 // j pc - 0x8
00001f17 30 80001040 80000040 80000044 // auipc t5, 0x1
fc3f2023 00 00000000 80000044 80000048 // sw gp, -64(t5)
ff9ff06f 00 00000000 80000048 80000040 // j pc - 0x8
00001f17 30 80001040 80000040 80000044 // auipc t5, 0x1
fc3f2023 00 00000000 80000044 80000048 // sw gp, -64(t5)
ff9ff06f 00 00000000 80000048 80000040 // j pc - 0x8
00001f17 30 80001040 80000040 80000044 // auipc t5, 0x1
fc3f2023 00 00000000 80000044 80000048 // sw gp, -64(t5)
ff9ff06f 00 00000000 80000048 80000040 // j pc - 0x8
00001f17 30 80001040 80000040 80000044 // auipc t5, 0x1
fc3f2023 00 00000000 80000044 80000048 // sw gp, -64(t5)
ff9ff06f 00 00000000 80000048 80000040 // j pc - 0x8
00001f17 30 80001040 80000040 80000044 // auipc t5, 0x1
fc3f2023 00 00000000 80000044 80000048 // sw gp, -64(t5)
ff9ff06f 00 00000000 80000048 80000040 // j pc - 0x8
00001f17 30 80001040 80000040 80000044 // auipc t5, 0x1
fc3f2023 00 00000000 80000044 80000048 // sw gp, -64(t5)
ff9ff06f 00 00000000 80000048 80000040 // j pc - 0x8
00001f17 30 80001040 80000040 80000044 // auipc t5, 0x1
fc3f2023 00 00000000 80000044 80000048 // sw gp, -64(t5)
ff9ff06f 00 00000000 80000048 80000040 // j pc - 0x8
00001f17 30 80001040 80000040 80000044 // auipc t5, 0x1
fc3f2023 00 00000000 80000044 80000048 // sw gp, -64(t5)
ff9ff06f 00 00000000 80000048 80000040 // j pc - 0x8
00001f17 30 80001040 80000040 80000044 // auipc t5, 0x1
fc3f2023 00 00000000 80000044 80000048 // sw gp, -64(t5)
ff9ff06f 00 00000000 80000048 80000040 // j pc - 0x8
00001f17 30 80001040 80000040 80000044 // auipc t5, 0x1
fc3f2023 00 00000000 80000044 80000048 // sw gp, -64(t5)
ff9ff06f 00 00000000 80000048 80000040 // j pc - 0x8
00001f17 30 80001040 80000040 80000044 // auipc t5, 0x1
fc3f2023 00 00000000 80000044 80000048 // sw gp, -64(t5)
ff9ff06f 00 00000000 80000048 80000040 // j pc - 0x8
00001f17 30 80001040 80000040 80000044 // auipc t5, 0x1
fc3f2023 00 00000000 80000044 80000048 // sw gp, -64(t5)
ff9ff06f 00 00000000 80000048 80000040 // j pc - 0x8
00001f17 30 80001040 80000040 80000044 // auipc t5, 0x1
fc3f2023 00 00000000 80000044 80000048 // sw gp, -64(t5)
ff9ff06f 00 00000000 80000048 80000040 // j pc - 0x8
00001f17 30 80001040 80000040 80000044 // auipc t5, 0x1
fc3f2023 00 00000000 80000044 80000048 // sw gp, -64(t5)
ff9ff06f 00 00000000 80000048 80000040 // j pc - 0x8
00001f17 30 80001040 80000040 80000044 // auipc t5, 0x1
fc3f2023 00 00000000 80000044 80000048 // sw gp, -64(t5)
ff9ff06f 00 00000000 80000048 80000040 // j pc - 0x8
00001f17 30 80001040 80000040 80000044 // auipc t5, 0x1
fc3f2023 00 00000000 80000044 80000048 // sw gp, -64(t5)
ff9ff06f 00 00000000 80000048 80000040 // j pc - 0x8
00001f17 30 80001040 80000040 80000044 // auipc t5, 0x1
fc3f2023 00 00000000 80000044 80000048 // sw gp, -64(t5)
ff9ff06f 00 00000000 80000048 80000040 // j pc - 0x8
00001f17 30 80001040 80000040 80000044 // auipc t5, 0x1
fc3f2023 00 00000000 80000044 80000048 // sw gp, -64(t5)
ff9ff06f 00 00000000 80000048 80000040 // j pc - 0x8
00001f17 30 80001040 80000040 80000044 // auipc t5, 0x1
fc3f2023 00 00000000 80000044 80000048 // sw gp, -64(t5)
ff9ff06f 00 00000000 80000048 80000040 // j pc - 0x8
00001f17 30 80001040 80000040 80000044 // auipc t5, 0x1
fc3f2023 00 00000000 80000044 80000048 // sw gp, -64(t5)
ff9ff06f 00 00000000 80000048 80000040 // j pc - 0x8
00001f17 30 80001040 80000040 80000044 // auipc t5, 0x1
fc3f2023 00 00000000 80000044 80000048 // sw gp, -64(t5)
ff9ff06f 00 00000000 80000048 80000040 // j pc - 0x8
00001f17 30 80001040 80000040 80000044 // auipc t5, 0x1
fc3f2023 00 00000000 80000044 80000048 // sw gp, -64(t5)
ff9ff06f 00 00000000 80000048 80000040 // j pc - 0x8
00001f17 30 80001040 80000040 80000044 // auipc t5, 0x1
fc3f2023 00 00000000 80000044 80000048 // sw gp, -64(t5)
ff9ff06f 00 00000000 80000048 80000040 // j pc - 0x8
00001f17 30 80001040 80000040 80000044 // auipc t5, 0x1
fc3f2023 00 00000000 80000044 80000048 // sw gp, -64(t5)
ff9ff06f 00 00000000 80000048 80000040 // j pc - 0x8
00001f17 30 80001040 80000040 80000044 // auipc t5, 0x1
fc3f2023 00 00000000 80000044 80000048 // sw gp, -64(t5)
ff9ff06f 00 00000000 80000048 80000040 // j pc - 0x8
00001f17 30 80001040 80000040 80000044 // auipc t5, 0x1
fc3f2023 00 00000000 80000044 80000048 // sw gp, -64(t5)
ff9ff06f 00 00000000 80000048 80000040 // j pc - 0x8
00001f17 30 80001040 80000040 80000044 // auipc t5, 0x1
fc3f2023 00 00000000 80000044 80000048 // sw gp, -64(t5)
ff9ff06f 00 00000000 80000048 80000040 // j pc - 0x8
00001f17 30 80001040 80000040 80000044 // auipc t5, 0x1
fc3f2023 00 00000000 80000044 80000048 // sw gp, -64(t5)
ff9ff06f 00 00000000 80000048 80000040 // j pc - 0x8
00001f17 30 80001040 80000040 80000044 // auipc t5, 0x1
fc3f2023 00 00000000 80000044 80000048 // sw gp, -64(t5)
ff9ff06f 00 00000000 80000048 80000040 // j pc - 0x8
00001f17 30 80001040 80000040 80000044 // auipc t5, 0x1
fc3f2023 00 00000000 80000044 80000048 // sw gp, -64(t5)
ff9ff06f 00 00000000 80000048 80000040 // j pc - 0x8
00001f17 30 80001040 80000040 80000044 // auipc t5, 0x1
fc3f2023 00 00000000 80000044 80000048 // sw gp, -64(t5)
ff9ff06f 00 00000000 80000048 80000040 // j pc - 0x8
00001f17 30 80001040 80000040 80000044 // auipc t5, 0x1
fc3f2023 00 00000000 80000044 80000048 // sw gp, -64(t5)
ff9ff06f 00 00000000 80000048 80000040 // j pc - 0x8
00001f17 30 80001040 80000040 80000044 // auipc t5, 0x1
fc3f2023 00 00000000 80000044 80000048 // sw gp, -64(t5)
ff9ff06f 00 00000000 80000048 80000040 // j pc - 0x8
00001f17 30 80001040 80000040 80000044 // auipc t5, 0x1
fc3f2023 00 00000000 80000044 80000048 // sw gp, -64(t5)
ff9ff06f 00 00000000 80000048 80000040 // j pc - 0x8
00001f17 30 80001040 80000040 80000044 // auipc t5, 0x1
fc3f2023 00 00000000 80000044 80000048 // sw gp, -64(t5)
ff9ff06f 00 00000000 80000048 80000040 // j pc - 0x8
00001f17 30 80001040 80000040 80000044 // auipc t5, 0x1
fc3f2023 00 00000000 80000044 80000048 // sw gp, -64(t5)
ff9ff06f 00 00000000 80000048 80000040 // j pc - 0x8
00001f17 30 80001040 80000040 80000044 // auipc t5, 0x1
fc3f2023 00 00000000 80000044 80000048 // sw gp, -64(t5)
ff9ff06f 00 00000000 80000048 80000040 // j pc - 0x8
00001f17 30 80001040 80000040 80000044 // auipc t5, 0x1
fc3f2023 00 00000000 80000044 80000048 // sw gp, -64(t5)
ff9ff06f 00 00000000 80000048 80000040 // j pc - 0x8
00001f17 30 80001040 80000040 80000044 // auipc t5, 0x1
fc3f2023 00 00000000 80000044 80000048 // sw gp, -64(t5)
ff9ff06f 00 00000000 80000048 80000040 // j pc - 0x8
00001f17 30 80001040 80000040 80000044 // auipc t5, 0x1
fc3f2023 00 00000000 80000044 80000048 // sw gp, -64(t5)
ff9ff06f 00 00000000 80000048 80000040 // j pc - 0x8
00001f17 30 80001040 80000040 80000044 // auipc t5, 0x1
fc3f2023 00 00000000 80000044 80000048 // sw gp, -64(t5)
ff9ff06f 00 00000000 80000048 80000040 // j pc - 0x8
00001f17 30 80001040 80000040 80000044 // auipc t5, 0x1
fc3f2023 00 00000000 80000044 80000048 // sw gp, -64(t5)
ff9ff06f 00 00000000 80000048 80000040 // j pc - 0x8
00001f17 30 80001040 80000040 80000044 // auipc t5, 0x1
fc3f2023 00 00000000 80000044 80000048 // sw gp, -64(t5)
ff9ff06f 00 00000000 80000048 80000040 // j pc - 0x8
00001f17 30 80001040 80000040 80000044 // auipc t5, 0x1
fc3f2023 00 00000000 80000044 80000048 // sw gp, -64(t5)
ff9ff06f 00 00000000 80000048 80000040 // j pc - 0x8
00001f17 30 80001040 80000040 80000044 // auipc t5, 0x1
fc3f2023 00 00000000 80000044 80000048 // sw gp, -64(t5)
ff9ff06f 00 00000000 80000048 80000040 // j pc - 0x8
00001f17 30 80001040 80000040 80000044 // auipc t5, 0x1
fc3f2023 00 00000000 80000044 80000048 // sw gp, -64(t5)
ff9ff06f 00 00000000 80000048 80000040 // j pc - 0x8
00001f17 30 80001040 80000040 80000044 // auipc t5, 0x1
fc3f2023 00 00000000 80000044 80000048 // sw gp, -64(t5)
ff9ff06f 00 00000000 80000048 80000040 // j pc - 0x8
00001f17 30 80001040 80000040 80000044 // auipc t5, 0x1
fc3f2023 00 00000000 80000044 80000048 // sw gp, -64(t5)
ff9ff06f 00 00000000 80000048 80000040 // j pc - 0x8
00001f17 30 80001040 80000040 80000044 // auipc t5, 0x1
fc3f2023 00 00000000 80000044 80000048 // sw gp, -64(t5)
ff9ff06f 00 00000000 80000048 80000040 // j pc - 0x8
00001f17 30 80001040 80000040 80000044 // auipc t5, 0x1
fc3f2023 00 00000000 80000044 80000048 // sw gp, -64(t5)
ff9ff06f 00 00000000 80000048 80000040 // j pc - 0x8
00001f17 30 80001040 80000040 80000044 // auipc t5, 0x1
fc3f2023 00 00000000 80000044 80000048 // sw gp, -64(t5)
ff9ff06f 00 00000000 80000048 80000040 // j pc - 0x8
00001f17 30 80001040 80000040 80000044 // auipc t5, 0x1
fc3f2023 00 00000000 80000044 80000048 // sw gp, -64(t5)
ff9ff06f 00 00000000 80000048 80000040 // j pc - 0x8
00001f17 30 80001040 80000040 80000044 // auipc t5, 0x1
fc3f2023 00 00000000 80000044 80000048 // sw gp, -64(t5)
ff9ff06f 00 00000000 80000048 80000040 // j pc - 0x8
00001f17 30 80001040 80000040 80000044 // auipc t5, 0x1
fc3f2023 00 00000000 80000044 80000048 // sw gp, -64(t5)
ff9ff06f 00 00000000 80000048 80000040 // j pc - 0x8
00001f17 30 80001040 80000040 80000044 // auipc t5, 0x1
fc3f2023 00 00000000 80000044 80000048 // sw gp, -64(t5)
ff9ff06f 00 00000000 80000048 80000040 // j pc - 0x8
00001f17 30 80001040 80000040 80000044 // auipc t5, 0x1
fc3f2023 00 00000000 80000044 80000048 // sw gp, -64(t5)
ff9ff06f 00 00000000 80000048 80000040 // j pc - 0x8
00001f17 30 80001040 80000040 80000044 // auipc t5, 0x1
fc3f2023 00 00000000 80000044 80000048 // sw gp, -64(t5)
ff9ff06f 00 00000000 80000048 80000040 // j pc - 0x8
00001f17 30 80001040 80000040 80000044 // auipc t5, 0x1
fc3f2023 00 00000000 80000044 80000048 // sw gp, -64(t5)
ff9ff06f 00 00000000 80000048 80000040 // j pc - 0x8
00001f17 30 80001040 80000040 80000044 // auipc t5, 0x1
fc3f2023 00 00000000 80000044 80000048 // sw gp, -64(t5)
ff9ff06f 00 00000000 80000048 80000040 // j pc - 0x8
00001f17 30 80001040 80000040 80000044 // auipc t5, 0x1
fc3f2023 00 00000000 80000044 80000048 // sw gp, -64(t5)
ff9ff06f 00 00000000 80000048 80000040 // j pc - 0x8
00001f17 30 80001040 80000040 80000044 // auipc t5, 0x1
fc3f2023 00 00000000 80000044 80000048 // sw gp, -64(t5)
ff9ff06f 00 00000000 80000048 80000040 // j pc - 0x8
00001f17 30 80001040 80000040 80000044 // auipc t5, 0x1
fc3f2023 00 00000000 80000044 beef // sw gp, -64(t5)
